   1              		.syntax unified
   2              		.cpu cortex-m3
   3              		.fpu softvfp
   4              		.eabi_attribute 20, 1
   5              		.eabi_attribute 21, 1
   6              		.eabi_attribute 23, 3
   7              		.eabi_attribute 24, 1
   8              		.eabi_attribute 25, 1
   9              		.eabi_attribute 26, 1
  10              		.eabi_attribute 30, 6
  11              		.eabi_attribute 34, 1
  12              		.eabi_attribute 18, 4
  13              		.thumb
  14              		.file	"stm32f10x_dac.c"
  15              		.text
  16              	.Ltext0:
  17              		.cfi_sections	.debug_frame
  18              		.align	2
  19              		.global	DAC_DeInit
  20              		.thumb
  21              		.thumb_func
  23              	DAC_DeInit:
  24              	.LFB29:
  25              		.file 1 "../Libraries/STM32F10x_StdPeriph_Driver/src/stm32f10x_dac.c"
   1:../Libraries/STM32F10x_StdPeriph_Driver/src/stm32f10x_dac.c **** /**
   2:../Libraries/STM32F10x_StdPeriph_Driver/src/stm32f10x_dac.c ****   ******************************************************************************
   3:../Libraries/STM32F10x_StdPeriph_Driver/src/stm32f10x_dac.c ****   * @file    stm32f10x_dac.c
   4:../Libraries/STM32F10x_StdPeriph_Driver/src/stm32f10x_dac.c ****   * @author  MCD Application Team
   5:../Libraries/STM32F10x_StdPeriph_Driver/src/stm32f10x_dac.c ****   * @version V3.5.0
   6:../Libraries/STM32F10x_StdPeriph_Driver/src/stm32f10x_dac.c ****   * @date    11-March-2011
   7:../Libraries/STM32F10x_StdPeriph_Driver/src/stm32f10x_dac.c ****   * @brief   This file provides all the DAC firmware functions.
   8:../Libraries/STM32F10x_StdPeriph_Driver/src/stm32f10x_dac.c ****   ******************************************************************************
   9:../Libraries/STM32F10x_StdPeriph_Driver/src/stm32f10x_dac.c ****   * @attention
  10:../Libraries/STM32F10x_StdPeriph_Driver/src/stm32f10x_dac.c ****   *
  11:../Libraries/STM32F10x_StdPeriph_Driver/src/stm32f10x_dac.c ****   * THE PRESENT FIRMWARE WHICH IS FOR GUIDANCE ONLY AIMS AT PROVIDING CUSTOMERS
  12:../Libraries/STM32F10x_StdPeriph_Driver/src/stm32f10x_dac.c ****   * WITH CODING INFORMATION REGARDING THEIR PRODUCTS IN ORDER FOR THEM TO SAVE
  13:../Libraries/STM32F10x_StdPeriph_Driver/src/stm32f10x_dac.c ****   * TIME. AS A RESULT, STMICROELECTRONICS SHALL NOT BE HELD LIABLE FOR ANY
  14:../Libraries/STM32F10x_StdPeriph_Driver/src/stm32f10x_dac.c ****   * DIRECT, INDIRECT OR CONSEQUENTIAL DAMAGES WITH RESPECT TO ANY CLAIMS ARISING
  15:../Libraries/STM32F10x_StdPeriph_Driver/src/stm32f10x_dac.c ****   * FROM THE CONTENT OF SUCH FIRMWARE AND/OR THE USE MADE BY CUSTOMERS OF THE
  16:../Libraries/STM32F10x_StdPeriph_Driver/src/stm32f10x_dac.c ****   * CODING INFORMATION CONTAINED HEREIN IN CONNECTION WITH THEIR PRODUCTS.
  17:../Libraries/STM32F10x_StdPeriph_Driver/src/stm32f10x_dac.c ****   *
  18:../Libraries/STM32F10x_StdPeriph_Driver/src/stm32f10x_dac.c ****   * <h2><center>&copy; COPYRIGHT 2011 STMicroelectronics</center></h2>
  19:../Libraries/STM32F10x_StdPeriph_Driver/src/stm32f10x_dac.c ****   ******************************************************************************
  20:../Libraries/STM32F10x_StdPeriph_Driver/src/stm32f10x_dac.c ****   */
  21:../Libraries/STM32F10x_StdPeriph_Driver/src/stm32f10x_dac.c **** 
  22:../Libraries/STM32F10x_StdPeriph_Driver/src/stm32f10x_dac.c **** /* Includes ------------------------------------------------------------------*/
  23:../Libraries/STM32F10x_StdPeriph_Driver/src/stm32f10x_dac.c **** #include "stm32f10x_dac.h"
  24:../Libraries/STM32F10x_StdPeriph_Driver/src/stm32f10x_dac.c **** #include "stm32f10x_rcc.h"
  25:../Libraries/STM32F10x_StdPeriph_Driver/src/stm32f10x_dac.c **** 
  26:../Libraries/STM32F10x_StdPeriph_Driver/src/stm32f10x_dac.c **** /** @addtogroup STM32F10x_StdPeriph_Driver
  27:../Libraries/STM32F10x_StdPeriph_Driver/src/stm32f10x_dac.c ****   * @{
  28:../Libraries/STM32F10x_StdPeriph_Driver/src/stm32f10x_dac.c ****   */
  29:../Libraries/STM32F10x_StdPeriph_Driver/src/stm32f10x_dac.c **** 
  30:../Libraries/STM32F10x_StdPeriph_Driver/src/stm32f10x_dac.c **** /** @defgroup DAC 
  31:../Libraries/STM32F10x_StdPeriph_Driver/src/stm32f10x_dac.c ****   * @brief DAC driver modules
  32:../Libraries/STM32F10x_StdPeriph_Driver/src/stm32f10x_dac.c ****   * @{
  33:../Libraries/STM32F10x_StdPeriph_Driver/src/stm32f10x_dac.c ****   */ 
  34:../Libraries/STM32F10x_StdPeriph_Driver/src/stm32f10x_dac.c **** 
  35:../Libraries/STM32F10x_StdPeriph_Driver/src/stm32f10x_dac.c **** /** @defgroup DAC_Private_TypesDefinitions
  36:../Libraries/STM32F10x_StdPeriph_Driver/src/stm32f10x_dac.c ****   * @{
  37:../Libraries/STM32F10x_StdPeriph_Driver/src/stm32f10x_dac.c ****   */
  38:../Libraries/STM32F10x_StdPeriph_Driver/src/stm32f10x_dac.c **** 
  39:../Libraries/STM32F10x_StdPeriph_Driver/src/stm32f10x_dac.c **** /**
  40:../Libraries/STM32F10x_StdPeriph_Driver/src/stm32f10x_dac.c ****   * @}
  41:../Libraries/STM32F10x_StdPeriph_Driver/src/stm32f10x_dac.c ****   */
  42:../Libraries/STM32F10x_StdPeriph_Driver/src/stm32f10x_dac.c **** 
  43:../Libraries/STM32F10x_StdPeriph_Driver/src/stm32f10x_dac.c **** /** @defgroup DAC_Private_Defines
  44:../Libraries/STM32F10x_StdPeriph_Driver/src/stm32f10x_dac.c ****   * @{
  45:../Libraries/STM32F10x_StdPeriph_Driver/src/stm32f10x_dac.c ****   */
  46:../Libraries/STM32F10x_StdPeriph_Driver/src/stm32f10x_dac.c **** 
  47:../Libraries/STM32F10x_StdPeriph_Driver/src/stm32f10x_dac.c **** /* CR register Mask */
  48:../Libraries/STM32F10x_StdPeriph_Driver/src/stm32f10x_dac.c **** #define CR_CLEAR_MASK              ((uint32_t)0x00000FFE)
  49:../Libraries/STM32F10x_StdPeriph_Driver/src/stm32f10x_dac.c **** 
  50:../Libraries/STM32F10x_StdPeriph_Driver/src/stm32f10x_dac.c **** /* DAC Dual Channels SWTRIG masks */
  51:../Libraries/STM32F10x_StdPeriph_Driver/src/stm32f10x_dac.c **** #define DUAL_SWTRIG_SET            ((uint32_t)0x00000003)
  52:../Libraries/STM32F10x_StdPeriph_Driver/src/stm32f10x_dac.c **** #define DUAL_SWTRIG_RESET          ((uint32_t)0xFFFFFFFC)
  53:../Libraries/STM32F10x_StdPeriph_Driver/src/stm32f10x_dac.c **** 
  54:../Libraries/STM32F10x_StdPeriph_Driver/src/stm32f10x_dac.c **** /* DHR registers offsets */
  55:../Libraries/STM32F10x_StdPeriph_Driver/src/stm32f10x_dac.c **** #define DHR12R1_OFFSET             ((uint32_t)0x00000008)
  56:../Libraries/STM32F10x_StdPeriph_Driver/src/stm32f10x_dac.c **** #define DHR12R2_OFFSET             ((uint32_t)0x00000014)
  57:../Libraries/STM32F10x_StdPeriph_Driver/src/stm32f10x_dac.c **** #define DHR12RD_OFFSET             ((uint32_t)0x00000020)
  58:../Libraries/STM32F10x_StdPeriph_Driver/src/stm32f10x_dac.c **** 
  59:../Libraries/STM32F10x_StdPeriph_Driver/src/stm32f10x_dac.c **** /* DOR register offset */
  60:../Libraries/STM32F10x_StdPeriph_Driver/src/stm32f10x_dac.c **** #define DOR_OFFSET                 ((uint32_t)0x0000002C)
  61:../Libraries/STM32F10x_StdPeriph_Driver/src/stm32f10x_dac.c **** /**
  62:../Libraries/STM32F10x_StdPeriph_Driver/src/stm32f10x_dac.c ****   * @}
  63:../Libraries/STM32F10x_StdPeriph_Driver/src/stm32f10x_dac.c ****   */
  64:../Libraries/STM32F10x_StdPeriph_Driver/src/stm32f10x_dac.c **** 
  65:../Libraries/STM32F10x_StdPeriph_Driver/src/stm32f10x_dac.c **** /** @defgroup DAC_Private_Macros
  66:../Libraries/STM32F10x_StdPeriph_Driver/src/stm32f10x_dac.c ****   * @{
  67:../Libraries/STM32F10x_StdPeriph_Driver/src/stm32f10x_dac.c ****   */
  68:../Libraries/STM32F10x_StdPeriph_Driver/src/stm32f10x_dac.c **** 
  69:../Libraries/STM32F10x_StdPeriph_Driver/src/stm32f10x_dac.c **** /**
  70:../Libraries/STM32F10x_StdPeriph_Driver/src/stm32f10x_dac.c ****   * @}
  71:../Libraries/STM32F10x_StdPeriph_Driver/src/stm32f10x_dac.c ****   */
  72:../Libraries/STM32F10x_StdPeriph_Driver/src/stm32f10x_dac.c **** 
  73:../Libraries/STM32F10x_StdPeriph_Driver/src/stm32f10x_dac.c **** /** @defgroup DAC_Private_Variables
  74:../Libraries/STM32F10x_StdPeriph_Driver/src/stm32f10x_dac.c ****   * @{
  75:../Libraries/STM32F10x_StdPeriph_Driver/src/stm32f10x_dac.c ****   */
  76:../Libraries/STM32F10x_StdPeriph_Driver/src/stm32f10x_dac.c **** 
  77:../Libraries/STM32F10x_StdPeriph_Driver/src/stm32f10x_dac.c **** /**
  78:../Libraries/STM32F10x_StdPeriph_Driver/src/stm32f10x_dac.c ****   * @}
  79:../Libraries/STM32F10x_StdPeriph_Driver/src/stm32f10x_dac.c ****   */
  80:../Libraries/STM32F10x_StdPeriph_Driver/src/stm32f10x_dac.c **** 
  81:../Libraries/STM32F10x_StdPeriph_Driver/src/stm32f10x_dac.c **** /** @defgroup DAC_Private_FunctionPrototypes
  82:../Libraries/STM32F10x_StdPeriph_Driver/src/stm32f10x_dac.c ****   * @{
  83:../Libraries/STM32F10x_StdPeriph_Driver/src/stm32f10x_dac.c ****   */
  84:../Libraries/STM32F10x_StdPeriph_Driver/src/stm32f10x_dac.c **** 
  85:../Libraries/STM32F10x_StdPeriph_Driver/src/stm32f10x_dac.c **** /**
  86:../Libraries/STM32F10x_StdPeriph_Driver/src/stm32f10x_dac.c ****   * @}
  87:../Libraries/STM32F10x_StdPeriph_Driver/src/stm32f10x_dac.c ****   */
  88:../Libraries/STM32F10x_StdPeriph_Driver/src/stm32f10x_dac.c **** 
  89:../Libraries/STM32F10x_StdPeriph_Driver/src/stm32f10x_dac.c **** /** @defgroup DAC_Private_Functions
  90:../Libraries/STM32F10x_StdPeriph_Driver/src/stm32f10x_dac.c ****   * @{
  91:../Libraries/STM32F10x_StdPeriph_Driver/src/stm32f10x_dac.c ****   */
  92:../Libraries/STM32F10x_StdPeriph_Driver/src/stm32f10x_dac.c **** 
  93:../Libraries/STM32F10x_StdPeriph_Driver/src/stm32f10x_dac.c **** /**
  94:../Libraries/STM32F10x_StdPeriph_Driver/src/stm32f10x_dac.c ****   * @brief  Deinitializes the DAC peripheral registers to their default reset values.
  95:../Libraries/STM32F10x_StdPeriph_Driver/src/stm32f10x_dac.c ****   * @param  None
  96:../Libraries/STM32F10x_StdPeriph_Driver/src/stm32f10x_dac.c ****   * @retval None
  97:../Libraries/STM32F10x_StdPeriph_Driver/src/stm32f10x_dac.c ****   */
  98:../Libraries/STM32F10x_StdPeriph_Driver/src/stm32f10x_dac.c **** void DAC_DeInit(void)
  99:../Libraries/STM32F10x_StdPeriph_Driver/src/stm32f10x_dac.c **** {
  26              		.loc 1 99 0
  27              		.cfi_startproc
  28              		@ args = 0, pretend = 0, frame = 0
  29              		@ frame_needed = 1, uses_anonymous_args = 0
  30 0000 80B5     		push	{r7, lr}
  31              	.LCFI0:
  32              		.cfi_def_cfa_offset 8
  33              		.cfi_offset 14, -4
  34              		.cfi_offset 7, -8
  35 0002 00AF     		add	r7, sp, #0
  36              	.LCFI1:
  37              		.cfi_def_cfa_register 7
 100:../Libraries/STM32F10x_StdPeriph_Driver/src/stm32f10x_dac.c ****   /* Enable DAC reset state */
 101:../Libraries/STM32F10x_StdPeriph_Driver/src/stm32f10x_dac.c ****   RCC_APB1PeriphResetCmd(RCC_APB1Periph_DAC, ENABLE);
  38              		.loc 1 101 0
  39 0004 4FF00050 		mov	r0, #536870912
  40 0008 4FF00101 		mov	r1, #1
  41 000c FFF7FEFF 		bl	RCC_APB1PeriphResetCmd
 102:../Libraries/STM32F10x_StdPeriph_Driver/src/stm32f10x_dac.c ****   /* Release DAC from reset state */
 103:../Libraries/STM32F10x_StdPeriph_Driver/src/stm32f10x_dac.c ****   RCC_APB1PeriphResetCmd(RCC_APB1Periph_DAC, DISABLE);
  42              		.loc 1 103 0
  43 0010 4FF00050 		mov	r0, #536870912
  44 0014 4FF00001 		mov	r1, #0
  45 0018 FFF7FEFF 		bl	RCC_APB1PeriphResetCmd
 104:../Libraries/STM32F10x_StdPeriph_Driver/src/stm32f10x_dac.c **** }
  46              		.loc 1 104 0
  47 001c 80BD     		pop	{r7, pc}
  48              		.cfi_endproc
  49              	.LFE29:
  51 001e 00BF     		.align	2
  52              		.global	DAC_Init
  53              		.thumb
  54              		.thumb_func
  56              	DAC_Init:
  57              	.LFB30:
 105:../Libraries/STM32F10x_StdPeriph_Driver/src/stm32f10x_dac.c **** 
 106:../Libraries/STM32F10x_StdPeriph_Driver/src/stm32f10x_dac.c **** /**
 107:../Libraries/STM32F10x_StdPeriph_Driver/src/stm32f10x_dac.c ****   * @brief  Initializes the DAC peripheral according to the specified 
 108:../Libraries/STM32F10x_StdPeriph_Driver/src/stm32f10x_dac.c ****   *         parameters in the DAC_InitStruct.
 109:../Libraries/STM32F10x_StdPeriph_Driver/src/stm32f10x_dac.c ****   * @param  DAC_Channel: the selected DAC channel. 
 110:../Libraries/STM32F10x_StdPeriph_Driver/src/stm32f10x_dac.c ****   *   This parameter can be one of the following values:
 111:../Libraries/STM32F10x_StdPeriph_Driver/src/stm32f10x_dac.c ****   *     @arg DAC_Channel_1: DAC Channel1 selected
 112:../Libraries/STM32F10x_StdPeriph_Driver/src/stm32f10x_dac.c ****   *     @arg DAC_Channel_2: DAC Channel2 selected
 113:../Libraries/STM32F10x_StdPeriph_Driver/src/stm32f10x_dac.c ****   * @param  DAC_InitStruct: pointer to a DAC_InitTypeDef structure that
 114:../Libraries/STM32F10x_StdPeriph_Driver/src/stm32f10x_dac.c ****   *        contains the configuration information for the specified DAC channel.
 115:../Libraries/STM32F10x_StdPeriph_Driver/src/stm32f10x_dac.c ****   * @retval None
 116:../Libraries/STM32F10x_StdPeriph_Driver/src/stm32f10x_dac.c ****   */
 117:../Libraries/STM32F10x_StdPeriph_Driver/src/stm32f10x_dac.c **** void DAC_Init(uint32_t DAC_Channel, DAC_InitTypeDef* DAC_InitStruct)
 118:../Libraries/STM32F10x_StdPeriph_Driver/src/stm32f10x_dac.c **** {
  58              		.loc 1 118 0
  59              		.cfi_startproc
  60              		@ args = 0, pretend = 0, frame = 16
  61              		@ frame_needed = 1, uses_anonymous_args = 0
  62              		@ link register save eliminated.
  63 0020 80B4     		push	{r7}
  64              	.LCFI2:
  65              		.cfi_def_cfa_offset 4
  66              		.cfi_offset 7, -4
  67 0022 85B0     		sub	sp, sp, #20
  68              	.LCFI3:
  69              		.cfi_def_cfa_offset 24
  70 0024 00AF     		add	r7, sp, #0
  71              	.LCFI4:
  72              		.cfi_def_cfa_register 7
  73 0026 7860     		str	r0, [r7, #4]
  74 0028 3960     		str	r1, [r7, #0]
 119:../Libraries/STM32F10x_StdPeriph_Driver/src/stm32f10x_dac.c ****   uint32_t tmpreg1 = 0, tmpreg2 = 0;
  75              		.loc 1 119 0
  76 002a 4FF00003 		mov	r3, #0
  77 002e FB60     		str	r3, [r7, #12]
  78 0030 4FF00003 		mov	r3, #0
  79 0034 BB60     		str	r3, [r7, #8]
 120:../Libraries/STM32F10x_StdPeriph_Driver/src/stm32f10x_dac.c ****   /* Check the DAC parameters */
 121:../Libraries/STM32F10x_StdPeriph_Driver/src/stm32f10x_dac.c ****   assert_param(IS_DAC_TRIGGER(DAC_InitStruct->DAC_Trigger));
 122:../Libraries/STM32F10x_StdPeriph_Driver/src/stm32f10x_dac.c ****   assert_param(IS_DAC_GENERATE_WAVE(DAC_InitStruct->DAC_WaveGeneration));
 123:../Libraries/STM32F10x_StdPeriph_Driver/src/stm32f10x_dac.c ****   assert_param(IS_DAC_LFSR_UNMASK_TRIANGLE_AMPLITUDE(DAC_InitStruct->DAC_LFSRUnmask_TriangleAmplitu
 124:../Libraries/STM32F10x_StdPeriph_Driver/src/stm32f10x_dac.c ****   assert_param(IS_DAC_OUTPUT_BUFFER_STATE(DAC_InitStruct->DAC_OutputBuffer));
 125:../Libraries/STM32F10x_StdPeriph_Driver/src/stm32f10x_dac.c **** /*---------------------------- DAC CR Configuration --------------------------*/
 126:../Libraries/STM32F10x_StdPeriph_Driver/src/stm32f10x_dac.c ****   /* Get the DAC CR value */
 127:../Libraries/STM32F10x_StdPeriph_Driver/src/stm32f10x_dac.c ****   tmpreg1 = DAC->CR;
  80              		.loc 1 127 0
  81 0036 4FF4E843 		mov	r3, #29696
  82 003a C4F20003 		movt	r3, 16384
  83 003e 1B68     		ldr	r3, [r3, #0]
  84 0040 FB60     		str	r3, [r7, #12]
 128:../Libraries/STM32F10x_StdPeriph_Driver/src/stm32f10x_dac.c ****   /* Clear BOFFx, TENx, TSELx, WAVEx and MAMPx bits */
 129:../Libraries/STM32F10x_StdPeriph_Driver/src/stm32f10x_dac.c ****   tmpreg1 &= ~(CR_CLEAR_MASK << DAC_Channel);
  85              		.loc 1 129 0
  86 0042 7B68     		ldr	r3, [r7, #4]
  87 0044 40F6FE72 		movw	r2, #4094
  88 0048 02FA03F3 		lsl	r3, r2, r3
  89 004c 6FEA0303 		mvn	r3, r3
  90 0050 FA68     		ldr	r2, [r7, #12]
  91 0052 1340     		ands	r3, r3, r2
  92 0054 FB60     		str	r3, [r7, #12]
 130:../Libraries/STM32F10x_StdPeriph_Driver/src/stm32f10x_dac.c ****   /* Configure for the selected DAC channel: buffer output, trigger, wave generation,
 131:../Libraries/STM32F10x_StdPeriph_Driver/src/stm32f10x_dac.c ****      mask/amplitude for wave generation */
 132:../Libraries/STM32F10x_StdPeriph_Driver/src/stm32f10x_dac.c ****   /* Set TSELx and TENx bits according to DAC_Trigger value */
 133:../Libraries/STM32F10x_StdPeriph_Driver/src/stm32f10x_dac.c ****   /* Set WAVEx bits according to DAC_WaveGeneration value */
 134:../Libraries/STM32F10x_StdPeriph_Driver/src/stm32f10x_dac.c ****   /* Set MAMPx bits according to DAC_LFSRUnmask_TriangleAmplitude value */ 
 135:../Libraries/STM32F10x_StdPeriph_Driver/src/stm32f10x_dac.c ****   /* Set BOFFx bit according to DAC_OutputBuffer value */   
 136:../Libraries/STM32F10x_StdPeriph_Driver/src/stm32f10x_dac.c ****   tmpreg2 = (DAC_InitStruct->DAC_Trigger | DAC_InitStruct->DAC_WaveGeneration |
  93              		.loc 1 136 0
  94 0056 3B68     		ldr	r3, [r7, #0]
  95 0058 1A68     		ldr	r2, [r3, #0]
  96 005a 3B68     		ldr	r3, [r7, #0]
  97 005c 5B68     		ldr	r3, [r3, #4]
  98 005e 1A43     		orrs	r2, r2, r3
 137:../Libraries/STM32F10x_StdPeriph_Driver/src/stm32f10x_dac.c ****              DAC_InitStruct->DAC_LFSRUnmask_TriangleAmplitude | DAC_InitStruct->DAC_OutputBuffer);
  99              		.loc 1 137 0
 100 0060 3B68     		ldr	r3, [r7, #0]
 101 0062 9B68     		ldr	r3, [r3, #8]
 136:../Libraries/STM32F10x_StdPeriph_Driver/src/stm32f10x_dac.c ****   tmpreg2 = (DAC_InitStruct->DAC_Trigger | DAC_InitStruct->DAC_WaveGeneration |
 102              		.loc 1 136 0
 103 0064 1A43     		orrs	r2, r2, r3
 104              		.loc 1 137 0
 105 0066 3B68     		ldr	r3, [r7, #0]
 106 0068 DB68     		ldr	r3, [r3, #12]
 136:../Libraries/STM32F10x_StdPeriph_Driver/src/stm32f10x_dac.c ****   tmpreg2 = (DAC_InitStruct->DAC_Trigger | DAC_InitStruct->DAC_WaveGeneration |
 107              		.loc 1 136 0
 108 006a 1343     		orrs	r3, r3, r2
 109 006c BB60     		str	r3, [r7, #8]
 138:../Libraries/STM32F10x_StdPeriph_Driver/src/stm32f10x_dac.c ****   /* Calculate CR register value depending on DAC_Channel */
 139:../Libraries/STM32F10x_StdPeriph_Driver/src/stm32f10x_dac.c ****   tmpreg1 |= tmpreg2 << DAC_Channel;
 110              		.loc 1 139 0
 111 006e 7B68     		ldr	r3, [r7, #4]
 112 0070 BA68     		ldr	r2, [r7, #8]
 113 0072 02FA03F3 		lsl	r3, r2, r3
 114 0076 FA68     		ldr	r2, [r7, #12]
 115 0078 1343     		orrs	r3, r3, r2
 116 007a FB60     		str	r3, [r7, #12]
 140:../Libraries/STM32F10x_StdPeriph_Driver/src/stm32f10x_dac.c ****   /* Write to DAC CR */
 141:../Libraries/STM32F10x_StdPeriph_Driver/src/stm32f10x_dac.c ****   DAC->CR = tmpreg1;
 117              		.loc 1 141 0
 118 007c 4FF4E843 		mov	r3, #29696
 119 0080 C4F20003 		movt	r3, 16384
 120 0084 FA68     		ldr	r2, [r7, #12]
 121 0086 1A60     		str	r2, [r3, #0]
 142:../Libraries/STM32F10x_StdPeriph_Driver/src/stm32f10x_dac.c **** }
 122              		.loc 1 142 0
 123 0088 07F11407 		add	r7, r7, #20
 124 008c BD46     		mov	sp, r7
 125 008e 80BC     		pop	{r7}
 126 0090 7047     		bx	lr
 127              		.cfi_endproc
 128              	.LFE30:
 130 0092 00BF     		.align	2
 131              		.global	DAC_StructInit
 132              		.thumb
 133              		.thumb_func
 135              	DAC_StructInit:
 136              	.LFB31:
 143:../Libraries/STM32F10x_StdPeriph_Driver/src/stm32f10x_dac.c **** 
 144:../Libraries/STM32F10x_StdPeriph_Driver/src/stm32f10x_dac.c **** /**
 145:../Libraries/STM32F10x_StdPeriph_Driver/src/stm32f10x_dac.c ****   * @brief  Fills each DAC_InitStruct member with its default value.
 146:../Libraries/STM32F10x_StdPeriph_Driver/src/stm32f10x_dac.c ****   * @param  DAC_InitStruct : pointer to a DAC_InitTypeDef structure which will
 147:../Libraries/STM32F10x_StdPeriph_Driver/src/stm32f10x_dac.c ****   *         be initialized.
 148:../Libraries/STM32F10x_StdPeriph_Driver/src/stm32f10x_dac.c ****   * @retval None
 149:../Libraries/STM32F10x_StdPeriph_Driver/src/stm32f10x_dac.c ****   */
 150:../Libraries/STM32F10x_StdPeriph_Driver/src/stm32f10x_dac.c **** void DAC_StructInit(DAC_InitTypeDef* DAC_InitStruct)
 151:../Libraries/STM32F10x_StdPeriph_Driver/src/stm32f10x_dac.c **** {
 137              		.loc 1 151 0
 138              		.cfi_startproc
 139              		@ args = 0, pretend = 0, frame = 8
 140              		@ frame_needed = 1, uses_anonymous_args = 0
 141              		@ link register save eliminated.
 142 0094 80B4     		push	{r7}
 143              	.LCFI5:
 144              		.cfi_def_cfa_offset 4
 145              		.cfi_offset 7, -4
 146 0096 83B0     		sub	sp, sp, #12
 147              	.LCFI6:
 148              		.cfi_def_cfa_offset 16
 149 0098 00AF     		add	r7, sp, #0
 150              	.LCFI7:
 151              		.cfi_def_cfa_register 7
 152 009a 7860     		str	r0, [r7, #4]
 152:../Libraries/STM32F10x_StdPeriph_Driver/src/stm32f10x_dac.c **** /*--------------- Reset DAC init structure parameters values -----------------*/
 153:../Libraries/STM32F10x_StdPeriph_Driver/src/stm32f10x_dac.c ****   /* Initialize the DAC_Trigger member */
 154:../Libraries/STM32F10x_StdPeriph_Driver/src/stm32f10x_dac.c ****   DAC_InitStruct->DAC_Trigger = DAC_Trigger_None;
 153              		.loc 1 154 0
 154 009c 7B68     		ldr	r3, [r7, #4]
 155 009e 4FF00002 		mov	r2, #0
 156 00a2 1A60     		str	r2, [r3, #0]
 155:../Libraries/STM32F10x_StdPeriph_Driver/src/stm32f10x_dac.c ****   /* Initialize the DAC_WaveGeneration member */
 156:../Libraries/STM32F10x_StdPeriph_Driver/src/stm32f10x_dac.c ****   DAC_InitStruct->DAC_WaveGeneration = DAC_WaveGeneration_None;
 157              		.loc 1 156 0
 158 00a4 7B68     		ldr	r3, [r7, #4]
 159 00a6 4FF00002 		mov	r2, #0
 160 00aa 5A60     		str	r2, [r3, #4]
 157:../Libraries/STM32F10x_StdPeriph_Driver/src/stm32f10x_dac.c ****   /* Initialize the DAC_LFSRUnmask_TriangleAmplitude member */
 158:../Libraries/STM32F10x_StdPeriph_Driver/src/stm32f10x_dac.c ****   DAC_InitStruct->DAC_LFSRUnmask_TriangleAmplitude = DAC_LFSRUnmask_Bit0;
 161              		.loc 1 158 0
 162 00ac 7B68     		ldr	r3, [r7, #4]
 163 00ae 4FF00002 		mov	r2, #0
 164 00b2 9A60     		str	r2, [r3, #8]
 159:../Libraries/STM32F10x_StdPeriph_Driver/src/stm32f10x_dac.c ****   /* Initialize the DAC_OutputBuffer member */
 160:../Libraries/STM32F10x_StdPeriph_Driver/src/stm32f10x_dac.c ****   DAC_InitStruct->DAC_OutputBuffer = DAC_OutputBuffer_Enable;
 165              		.loc 1 160 0
 166 00b4 7B68     		ldr	r3, [r7, #4]
 167 00b6 4FF00002 		mov	r2, #0
 168 00ba DA60     		str	r2, [r3, #12]
 161:../Libraries/STM32F10x_StdPeriph_Driver/src/stm32f10x_dac.c **** }
 169              		.loc 1 161 0
 170 00bc 07F10C07 		add	r7, r7, #12
 171 00c0 BD46     		mov	sp, r7
 172 00c2 80BC     		pop	{r7}
 173 00c4 7047     		bx	lr
 174              		.cfi_endproc
 175              	.LFE31:
 177 00c6 00BF     		.align	2
 178              		.global	DAC_Cmd
 179              		.thumb
 180              		.thumb_func
 182              	DAC_Cmd:
 183              	.LFB32:
 162:../Libraries/STM32F10x_StdPeriph_Driver/src/stm32f10x_dac.c **** 
 163:../Libraries/STM32F10x_StdPeriph_Driver/src/stm32f10x_dac.c **** /**
 164:../Libraries/STM32F10x_StdPeriph_Driver/src/stm32f10x_dac.c ****   * @brief  Enables or disables the specified DAC channel.
 165:../Libraries/STM32F10x_StdPeriph_Driver/src/stm32f10x_dac.c ****   * @param  DAC_Channel: the selected DAC channel. 
 166:../Libraries/STM32F10x_StdPeriph_Driver/src/stm32f10x_dac.c ****   *   This parameter can be one of the following values:
 167:../Libraries/STM32F10x_StdPeriph_Driver/src/stm32f10x_dac.c ****   *     @arg DAC_Channel_1: DAC Channel1 selected
 168:../Libraries/STM32F10x_StdPeriph_Driver/src/stm32f10x_dac.c ****   *     @arg DAC_Channel_2: DAC Channel2 selected
 169:../Libraries/STM32F10x_StdPeriph_Driver/src/stm32f10x_dac.c ****   * @param  NewState: new state of the DAC channel. 
 170:../Libraries/STM32F10x_StdPeriph_Driver/src/stm32f10x_dac.c ****   *   This parameter can be: ENABLE or DISABLE.
 171:../Libraries/STM32F10x_StdPeriph_Driver/src/stm32f10x_dac.c ****   * @retval None
 172:../Libraries/STM32F10x_StdPeriph_Driver/src/stm32f10x_dac.c ****   */
 173:../Libraries/STM32F10x_StdPeriph_Driver/src/stm32f10x_dac.c **** void DAC_Cmd(uint32_t DAC_Channel, FunctionalState NewState)
 174:../Libraries/STM32F10x_StdPeriph_Driver/src/stm32f10x_dac.c **** {
 184              		.loc 1 174 0
 185              		.cfi_startproc
 186              		@ args = 0, pretend = 0, frame = 8
 187              		@ frame_needed = 1, uses_anonymous_args = 0
 188              		@ link register save eliminated.
 189 00c8 80B4     		push	{r7}
 190              	.LCFI8:
 191              		.cfi_def_cfa_offset 4
 192              		.cfi_offset 7, -4
 193 00ca 83B0     		sub	sp, sp, #12
 194              	.LCFI9:
 195              		.cfi_def_cfa_offset 16
 196 00cc 00AF     		add	r7, sp, #0
 197              	.LCFI10:
 198              		.cfi_def_cfa_register 7
 199 00ce 7860     		str	r0, [r7, #4]
 200 00d0 0B46     		mov	r3, r1
 201 00d2 FB70     		strb	r3, [r7, #3]
 175:../Libraries/STM32F10x_StdPeriph_Driver/src/stm32f10x_dac.c ****   /* Check the parameters */
 176:../Libraries/STM32F10x_StdPeriph_Driver/src/stm32f10x_dac.c ****   assert_param(IS_DAC_CHANNEL(DAC_Channel));
 177:../Libraries/STM32F10x_StdPeriph_Driver/src/stm32f10x_dac.c ****   assert_param(IS_FUNCTIONAL_STATE(NewState));
 178:../Libraries/STM32F10x_StdPeriph_Driver/src/stm32f10x_dac.c ****   if (NewState != DISABLE)
 202              		.loc 1 178 0
 203 00d4 FB78     		ldrb	r3, [r7, #3]	@ zero_extendqisi2
 204 00d6 002B     		cmp	r3, #0
 205 00d8 10D0     		beq	.L5
 179:../Libraries/STM32F10x_StdPeriph_Driver/src/stm32f10x_dac.c ****   {
 180:../Libraries/STM32F10x_StdPeriph_Driver/src/stm32f10x_dac.c ****     /* Enable the selected DAC channel */
 181:../Libraries/STM32F10x_StdPeriph_Driver/src/stm32f10x_dac.c ****     DAC->CR |= (DAC_CR_EN1 << DAC_Channel);
 206              		.loc 1 181 0
 207 00da 4FF4E843 		mov	r3, #29696
 208 00de C4F20003 		movt	r3, 16384
 209 00e2 4FF4E842 		mov	r2, #29696
 210 00e6 C4F20002 		movt	r2, 16384
 211 00ea 1168     		ldr	r1, [r2, #0]
 212 00ec 7A68     		ldr	r2, [r7, #4]
 213 00ee 4FF00100 		mov	r0, #1
 214 00f2 00FA02F2 		lsl	r2, r0, r2
 215 00f6 0A43     		orrs	r2, r2, r1
 216 00f8 1A60     		str	r2, [r3, #0]
 217 00fa 11E0     		b	.L4
 218              	.L5:
 182:../Libraries/STM32F10x_StdPeriph_Driver/src/stm32f10x_dac.c ****   }
 183:../Libraries/STM32F10x_StdPeriph_Driver/src/stm32f10x_dac.c ****   else
 184:../Libraries/STM32F10x_StdPeriph_Driver/src/stm32f10x_dac.c ****   {
 185:../Libraries/STM32F10x_StdPeriph_Driver/src/stm32f10x_dac.c ****     /* Disable the selected DAC channel */
 186:../Libraries/STM32F10x_StdPeriph_Driver/src/stm32f10x_dac.c ****     DAC->CR &= ~(DAC_CR_EN1 << DAC_Channel);
 219              		.loc 1 186 0
 220 00fc 4FF4E843 		mov	r3, #29696
 221 0100 C4F20003 		movt	r3, 16384
 222 0104 4FF4E842 		mov	r2, #29696
 223 0108 C4F20002 		movt	r2, 16384
 224 010c 1168     		ldr	r1, [r2, #0]
 225 010e 7A68     		ldr	r2, [r7, #4]
 226 0110 4FF00100 		mov	r0, #1
 227 0114 00FA02F2 		lsl	r2, r0, r2
 228 0118 6FEA0202 		mvn	r2, r2
 229 011c 0A40     		ands	r2, r2, r1
 230 011e 1A60     		str	r2, [r3, #0]
 231              	.L4:
 187:../Libraries/STM32F10x_StdPeriph_Driver/src/stm32f10x_dac.c ****   }
 188:../Libraries/STM32F10x_StdPeriph_Driver/src/stm32f10x_dac.c **** }
 232              		.loc 1 188 0
 233 0120 07F10C07 		add	r7, r7, #12
 234 0124 BD46     		mov	sp, r7
 235 0126 80BC     		pop	{r7}
 236 0128 7047     		bx	lr
 237              		.cfi_endproc
 238              	.LFE32:
 240 012a 00BF     		.align	2
 241              		.global	DAC_ITConfig
 242              		.thumb
 243              		.thumb_func
 245              	DAC_ITConfig:
 246              	.LFB33:
 189:../Libraries/STM32F10x_StdPeriph_Driver/src/stm32f10x_dac.c **** #if defined (STM32F10X_LD_VL) || defined (STM32F10X_MD_VL) || defined (STM32F10X_HD_VL)
 190:../Libraries/STM32F10x_StdPeriph_Driver/src/stm32f10x_dac.c **** /**
 191:../Libraries/STM32F10x_StdPeriph_Driver/src/stm32f10x_dac.c ****   * @brief  Enables or disables the specified DAC interrupts.
 192:../Libraries/STM32F10x_StdPeriph_Driver/src/stm32f10x_dac.c ****   * @param  DAC_Channel: the selected DAC channel. 
 193:../Libraries/STM32F10x_StdPeriph_Driver/src/stm32f10x_dac.c ****   *   This parameter can be one of the following values:
 194:../Libraries/STM32F10x_StdPeriph_Driver/src/stm32f10x_dac.c ****   *     @arg DAC_Channel_1: DAC Channel1 selected
 195:../Libraries/STM32F10x_StdPeriph_Driver/src/stm32f10x_dac.c ****   *     @arg DAC_Channel_2: DAC Channel2 selected
 196:../Libraries/STM32F10x_StdPeriph_Driver/src/stm32f10x_dac.c ****   * @param  DAC_IT: specifies the DAC interrupt sources to be enabled or disabled. 
 197:../Libraries/STM32F10x_StdPeriph_Driver/src/stm32f10x_dac.c ****   *   This parameter can be the following values:
 198:../Libraries/STM32F10x_StdPeriph_Driver/src/stm32f10x_dac.c ****   *     @arg DAC_IT_DMAUDR: DMA underrun interrupt mask                      
 199:../Libraries/STM32F10x_StdPeriph_Driver/src/stm32f10x_dac.c ****   * @param  NewState: new state of the specified DAC interrupts.
 200:../Libraries/STM32F10x_StdPeriph_Driver/src/stm32f10x_dac.c ****   *   This parameter can be: ENABLE or DISABLE.
 201:../Libraries/STM32F10x_StdPeriph_Driver/src/stm32f10x_dac.c ****   * @retval None
 202:../Libraries/STM32F10x_StdPeriph_Driver/src/stm32f10x_dac.c ****   */ 
 203:../Libraries/STM32F10x_StdPeriph_Driver/src/stm32f10x_dac.c **** void DAC_ITConfig(uint32_t DAC_Channel, uint32_t DAC_IT, FunctionalState NewState)  
 204:../Libraries/STM32F10x_StdPeriph_Driver/src/stm32f10x_dac.c **** {
 247              		.loc 1 204 0
 248              		.cfi_startproc
 249              		@ args = 0, pretend = 0, frame = 16
 250              		@ frame_needed = 1, uses_anonymous_args = 0
 251              		@ link register save eliminated.
 252 012c 80B4     		push	{r7}
 253              	.LCFI11:
 254              		.cfi_def_cfa_offset 4
 255              		.cfi_offset 7, -4
 256 012e 85B0     		sub	sp, sp, #20
 257              	.LCFI12:
 258              		.cfi_def_cfa_offset 24
 259 0130 00AF     		add	r7, sp, #0
 260              	.LCFI13:
 261              		.cfi_def_cfa_register 7
 262 0132 F860     		str	r0, [r7, #12]
 263 0134 B960     		str	r1, [r7, #8]
 264 0136 1346     		mov	r3, r2
 265 0138 FB71     		strb	r3, [r7, #7]
 205:../Libraries/STM32F10x_StdPeriph_Driver/src/stm32f10x_dac.c ****   /* Check the parameters */
 206:../Libraries/STM32F10x_StdPeriph_Driver/src/stm32f10x_dac.c ****   assert_param(IS_DAC_CHANNEL(DAC_Channel));
 207:../Libraries/STM32F10x_StdPeriph_Driver/src/stm32f10x_dac.c ****   assert_param(IS_FUNCTIONAL_STATE(NewState));
 208:../Libraries/STM32F10x_StdPeriph_Driver/src/stm32f10x_dac.c ****   assert_param(IS_DAC_IT(DAC_IT)); 
 209:../Libraries/STM32F10x_StdPeriph_Driver/src/stm32f10x_dac.c **** 
 210:../Libraries/STM32F10x_StdPeriph_Driver/src/stm32f10x_dac.c ****   if (NewState != DISABLE)
 266              		.loc 1 210 0
 267 013a FB79     		ldrb	r3, [r7, #7]	@ zero_extendqisi2
 268 013c 002B     		cmp	r3, #0
 269 013e 0FD0     		beq	.L8
 211:../Libraries/STM32F10x_StdPeriph_Driver/src/stm32f10x_dac.c ****   {
 212:../Libraries/STM32F10x_StdPeriph_Driver/src/stm32f10x_dac.c ****     /* Enable the selected DAC interrupts */
 213:../Libraries/STM32F10x_StdPeriph_Driver/src/stm32f10x_dac.c ****     DAC->CR |=  (DAC_IT << DAC_Channel);
 270              		.loc 1 213 0
 271 0140 4FF4E843 		mov	r3, #29696
 272 0144 C4F20003 		movt	r3, 16384
 273 0148 4FF4E842 		mov	r2, #29696
 274 014c C4F20002 		movt	r2, 16384
 275 0150 1168     		ldr	r1, [r2, #0]
 276 0152 FA68     		ldr	r2, [r7, #12]
 277 0154 B868     		ldr	r0, [r7, #8]
 278 0156 00FA02F2 		lsl	r2, r0, r2
 279 015a 0A43     		orrs	r2, r2, r1
 280 015c 1A60     		str	r2, [r3, #0]
 281 015e 10E0     		b	.L7
 282              	.L8:
 214:../Libraries/STM32F10x_StdPeriph_Driver/src/stm32f10x_dac.c ****   }
 215:../Libraries/STM32F10x_StdPeriph_Driver/src/stm32f10x_dac.c ****   else
 216:../Libraries/STM32F10x_StdPeriph_Driver/src/stm32f10x_dac.c ****   {
 217:../Libraries/STM32F10x_StdPeriph_Driver/src/stm32f10x_dac.c ****     /* Disable the selected DAC interrupts */
 218:../Libraries/STM32F10x_StdPeriph_Driver/src/stm32f10x_dac.c ****     DAC->CR &= (~(uint32_t)(DAC_IT << DAC_Channel));
 283              		.loc 1 218 0
 284 0160 4FF4E843 		mov	r3, #29696
 285 0164 C4F20003 		movt	r3, 16384
 286 0168 4FF4E842 		mov	r2, #29696
 287 016c C4F20002 		movt	r2, 16384
 288 0170 1168     		ldr	r1, [r2, #0]
 289 0172 FA68     		ldr	r2, [r7, #12]
 290 0174 B868     		ldr	r0, [r7, #8]
 291 0176 00FA02F2 		lsl	r2, r0, r2
 292 017a 6FEA0202 		mvn	r2, r2
 293 017e 0A40     		ands	r2, r2, r1
 294 0180 1A60     		str	r2, [r3, #0]
 295              	.L7:
 219:../Libraries/STM32F10x_StdPeriph_Driver/src/stm32f10x_dac.c ****   }
 220:../Libraries/STM32F10x_StdPeriph_Driver/src/stm32f10x_dac.c **** }
 296              		.loc 1 220 0
 297 0182 07F11407 		add	r7, r7, #20
 298 0186 BD46     		mov	sp, r7
 299 0188 80BC     		pop	{r7}
 300 018a 7047     		bx	lr
 301              		.cfi_endproc
 302              	.LFE33:
 304              		.align	2
 305              		.global	DAC_DMACmd
 306              		.thumb
 307              		.thumb_func
 309              	DAC_DMACmd:
 310              	.LFB34:
 221:../Libraries/STM32F10x_StdPeriph_Driver/src/stm32f10x_dac.c **** #endif
 222:../Libraries/STM32F10x_StdPeriph_Driver/src/stm32f10x_dac.c **** 
 223:../Libraries/STM32F10x_StdPeriph_Driver/src/stm32f10x_dac.c **** /**
 224:../Libraries/STM32F10x_StdPeriph_Driver/src/stm32f10x_dac.c ****   * @brief  Enables or disables the specified DAC channel DMA request.
 225:../Libraries/STM32F10x_StdPeriph_Driver/src/stm32f10x_dac.c ****   * @param  DAC_Channel: the selected DAC channel. 
 226:../Libraries/STM32F10x_StdPeriph_Driver/src/stm32f10x_dac.c ****   *   This parameter can be one of the following values:
 227:../Libraries/STM32F10x_StdPeriph_Driver/src/stm32f10x_dac.c ****   *     @arg DAC_Channel_1: DAC Channel1 selected
 228:../Libraries/STM32F10x_StdPeriph_Driver/src/stm32f10x_dac.c ****   *     @arg DAC_Channel_2: DAC Channel2 selected
 229:../Libraries/STM32F10x_StdPeriph_Driver/src/stm32f10x_dac.c ****   * @param  NewState: new state of the selected DAC channel DMA request.
 230:../Libraries/STM32F10x_StdPeriph_Driver/src/stm32f10x_dac.c ****   *   This parameter can be: ENABLE or DISABLE.
 231:../Libraries/STM32F10x_StdPeriph_Driver/src/stm32f10x_dac.c ****   * @retval None
 232:../Libraries/STM32F10x_StdPeriph_Driver/src/stm32f10x_dac.c ****   */
 233:../Libraries/STM32F10x_StdPeriph_Driver/src/stm32f10x_dac.c **** void DAC_DMACmd(uint32_t DAC_Channel, FunctionalState NewState)
 234:../Libraries/STM32F10x_StdPeriph_Driver/src/stm32f10x_dac.c **** {
 311              		.loc 1 234 0
 312              		.cfi_startproc
 313              		@ args = 0, pretend = 0, frame = 8
 314              		@ frame_needed = 1, uses_anonymous_args = 0
 315              		@ link register save eliminated.
 316 018c 80B4     		push	{r7}
 317              	.LCFI14:
 318              		.cfi_def_cfa_offset 4
 319              		.cfi_offset 7, -4
 320 018e 83B0     		sub	sp, sp, #12
 321              	.LCFI15:
 322              		.cfi_def_cfa_offset 16
 323 0190 00AF     		add	r7, sp, #0
 324              	.LCFI16:
 325              		.cfi_def_cfa_register 7
 326 0192 7860     		str	r0, [r7, #4]
 327 0194 0B46     		mov	r3, r1
 328 0196 FB70     		strb	r3, [r7, #3]
 235:../Libraries/STM32F10x_StdPeriph_Driver/src/stm32f10x_dac.c ****   /* Check the parameters */
 236:../Libraries/STM32F10x_StdPeriph_Driver/src/stm32f10x_dac.c ****   assert_param(IS_DAC_CHANNEL(DAC_Channel));
 237:../Libraries/STM32F10x_StdPeriph_Driver/src/stm32f10x_dac.c ****   assert_param(IS_FUNCTIONAL_STATE(NewState));
 238:../Libraries/STM32F10x_StdPeriph_Driver/src/stm32f10x_dac.c ****   if (NewState != DISABLE)
 329              		.loc 1 238 0
 330 0198 FB78     		ldrb	r3, [r7, #3]	@ zero_extendqisi2
 331 019a 002B     		cmp	r3, #0
 332 019c 10D0     		beq	.L11
 239:../Libraries/STM32F10x_StdPeriph_Driver/src/stm32f10x_dac.c ****   {
 240:../Libraries/STM32F10x_StdPeriph_Driver/src/stm32f10x_dac.c ****     /* Enable the selected DAC channel DMA request */
 241:../Libraries/STM32F10x_StdPeriph_Driver/src/stm32f10x_dac.c ****     DAC->CR |= (DAC_CR_DMAEN1 << DAC_Channel);
 333              		.loc 1 241 0
 334 019e 4FF4E843 		mov	r3, #29696
 335 01a2 C4F20003 		movt	r3, 16384
 336 01a6 4FF4E842 		mov	r2, #29696
 337 01aa C4F20002 		movt	r2, 16384
 338 01ae 1168     		ldr	r1, [r2, #0]
 339 01b0 7A68     		ldr	r2, [r7, #4]
 340 01b2 4FF48050 		mov	r0, #4096
 341 01b6 00FA02F2 		lsl	r2, r0, r2
 342 01ba 0A43     		orrs	r2, r2, r1
 343 01bc 1A60     		str	r2, [r3, #0]
 344 01be 11E0     		b	.L10
 345              	.L11:
 242:../Libraries/STM32F10x_StdPeriph_Driver/src/stm32f10x_dac.c ****   }
 243:../Libraries/STM32F10x_StdPeriph_Driver/src/stm32f10x_dac.c ****   else
 244:../Libraries/STM32F10x_StdPeriph_Driver/src/stm32f10x_dac.c ****   {
 245:../Libraries/STM32F10x_StdPeriph_Driver/src/stm32f10x_dac.c ****     /* Disable the selected DAC channel DMA request */
 246:../Libraries/STM32F10x_StdPeriph_Driver/src/stm32f10x_dac.c ****     DAC->CR &= ~(DAC_CR_DMAEN1 << DAC_Channel);
 346              		.loc 1 246 0
 347 01c0 4FF4E843 		mov	r3, #29696
 348 01c4 C4F20003 		movt	r3, 16384
 349 01c8 4FF4E842 		mov	r2, #29696
 350 01cc C4F20002 		movt	r2, 16384
 351 01d0 1168     		ldr	r1, [r2, #0]
 352 01d2 7A68     		ldr	r2, [r7, #4]
 353 01d4 4FF48050 		mov	r0, #4096
 354 01d8 00FA02F2 		lsl	r2, r0, r2
 355 01dc 6FEA0202 		mvn	r2, r2
 356 01e0 0A40     		ands	r2, r2, r1
 357 01e2 1A60     		str	r2, [r3, #0]
 358              	.L10:
 247:../Libraries/STM32F10x_StdPeriph_Driver/src/stm32f10x_dac.c ****   }
 248:../Libraries/STM32F10x_StdPeriph_Driver/src/stm32f10x_dac.c **** }
 359              		.loc 1 248 0
 360 01e4 07F10C07 		add	r7, r7, #12
 361 01e8 BD46     		mov	sp, r7
 362 01ea 80BC     		pop	{r7}
 363 01ec 7047     		bx	lr
 364              		.cfi_endproc
 365              	.LFE34:
 367 01ee 00BF     		.align	2
 368              		.global	DAC_SoftwareTriggerCmd
 369              		.thumb
 370              		.thumb_func
 372              	DAC_SoftwareTriggerCmd:
 373              	.LFB35:
 249:../Libraries/STM32F10x_StdPeriph_Driver/src/stm32f10x_dac.c **** 
 250:../Libraries/STM32F10x_StdPeriph_Driver/src/stm32f10x_dac.c **** /**
 251:../Libraries/STM32F10x_StdPeriph_Driver/src/stm32f10x_dac.c ****   * @brief  Enables or disables the selected DAC channel software trigger.
 252:../Libraries/STM32F10x_StdPeriph_Driver/src/stm32f10x_dac.c ****   * @param  DAC_Channel: the selected DAC channel. 
 253:../Libraries/STM32F10x_StdPeriph_Driver/src/stm32f10x_dac.c ****   *   This parameter can be one of the following values:
 254:../Libraries/STM32F10x_StdPeriph_Driver/src/stm32f10x_dac.c ****   *     @arg DAC_Channel_1: DAC Channel1 selected
 255:../Libraries/STM32F10x_StdPeriph_Driver/src/stm32f10x_dac.c ****   *     @arg DAC_Channel_2: DAC Channel2 selected
 256:../Libraries/STM32F10x_StdPeriph_Driver/src/stm32f10x_dac.c ****   * @param  NewState: new state of the selected DAC channel software trigger.
 257:../Libraries/STM32F10x_StdPeriph_Driver/src/stm32f10x_dac.c ****   *   This parameter can be: ENABLE or DISABLE.
 258:../Libraries/STM32F10x_StdPeriph_Driver/src/stm32f10x_dac.c ****   * @retval None
 259:../Libraries/STM32F10x_StdPeriph_Driver/src/stm32f10x_dac.c ****   */
 260:../Libraries/STM32F10x_StdPeriph_Driver/src/stm32f10x_dac.c **** void DAC_SoftwareTriggerCmd(uint32_t DAC_Channel, FunctionalState NewState)
 261:../Libraries/STM32F10x_StdPeriph_Driver/src/stm32f10x_dac.c **** {
 374              		.loc 1 261 0
 375              		.cfi_startproc
 376              		@ args = 0, pretend = 0, frame = 8
 377              		@ frame_needed = 1, uses_anonymous_args = 0
 378              		@ link register save eliminated.
 379 01f0 80B4     		push	{r7}
 380              	.LCFI17:
 381              		.cfi_def_cfa_offset 4
 382              		.cfi_offset 7, -4
 383 01f2 83B0     		sub	sp, sp, #12
 384              	.LCFI18:
 385              		.cfi_def_cfa_offset 16
 386 01f4 00AF     		add	r7, sp, #0
 387              	.LCFI19:
 388              		.cfi_def_cfa_register 7
 389 01f6 7860     		str	r0, [r7, #4]
 390 01f8 0B46     		mov	r3, r1
 391 01fa FB70     		strb	r3, [r7, #3]
 262:../Libraries/STM32F10x_StdPeriph_Driver/src/stm32f10x_dac.c ****   /* Check the parameters */
 263:../Libraries/STM32F10x_StdPeriph_Driver/src/stm32f10x_dac.c ****   assert_param(IS_DAC_CHANNEL(DAC_Channel));
 264:../Libraries/STM32F10x_StdPeriph_Driver/src/stm32f10x_dac.c ****   assert_param(IS_FUNCTIONAL_STATE(NewState));
 265:../Libraries/STM32F10x_StdPeriph_Driver/src/stm32f10x_dac.c ****   if (NewState != DISABLE)
 392              		.loc 1 265 0
 393 01fc FB78     		ldrb	r3, [r7, #3]	@ zero_extendqisi2
 394 01fe 002B     		cmp	r3, #0
 395 0200 12D0     		beq	.L14
 266:../Libraries/STM32F10x_StdPeriph_Driver/src/stm32f10x_dac.c ****   {
 267:../Libraries/STM32F10x_StdPeriph_Driver/src/stm32f10x_dac.c ****     /* Enable software trigger for the selected DAC channel */
 268:../Libraries/STM32F10x_StdPeriph_Driver/src/stm32f10x_dac.c ****     DAC->SWTRIGR |= (uint32_t)DAC_SWTRIGR_SWTRIG1 << (DAC_Channel >> 4);
 396              		.loc 1 268 0
 397 0202 4FF4E843 		mov	r3, #29696
 398 0206 C4F20003 		movt	r3, 16384
 399 020a 4FF4E842 		mov	r2, #29696
 400 020e C4F20002 		movt	r2, 16384
 401 0212 5168     		ldr	r1, [r2, #4]
 402 0214 7A68     		ldr	r2, [r7, #4]
 403 0216 4FEA1212 		lsr	r2, r2, #4
 404 021a 4FF00100 		mov	r0, #1
 405 021e 00FA02F2 		lsl	r2, r0, r2
 406 0222 0A43     		orrs	r2, r2, r1
 407 0224 5A60     		str	r2, [r3, #4]
 408 0226 13E0     		b	.L13
 409              	.L14:
 269:../Libraries/STM32F10x_StdPeriph_Driver/src/stm32f10x_dac.c ****   }
 270:../Libraries/STM32F10x_StdPeriph_Driver/src/stm32f10x_dac.c ****   else
 271:../Libraries/STM32F10x_StdPeriph_Driver/src/stm32f10x_dac.c ****   {
 272:../Libraries/STM32F10x_StdPeriph_Driver/src/stm32f10x_dac.c ****     /* Disable software trigger for the selected DAC channel */
 273:../Libraries/STM32F10x_StdPeriph_Driver/src/stm32f10x_dac.c ****     DAC->SWTRIGR &= ~((uint32_t)DAC_SWTRIGR_SWTRIG1 << (DAC_Channel >> 4));
 410              		.loc 1 273 0
 411 0228 4FF4E843 		mov	r3, #29696
 412 022c C4F20003 		movt	r3, 16384
 413 0230 4FF4E842 		mov	r2, #29696
 414 0234 C4F20002 		movt	r2, 16384
 415 0238 5168     		ldr	r1, [r2, #4]
 416 023a 7A68     		ldr	r2, [r7, #4]
 417 023c 4FEA1212 		lsr	r2, r2, #4
 418 0240 4FF00100 		mov	r0, #1
 419 0244 00FA02F2 		lsl	r2, r0, r2
 420 0248 6FEA0202 		mvn	r2, r2
 421 024c 0A40     		ands	r2, r2, r1
 422 024e 5A60     		str	r2, [r3, #4]
 423              	.L13:
 274:../Libraries/STM32F10x_StdPeriph_Driver/src/stm32f10x_dac.c ****   }
 275:../Libraries/STM32F10x_StdPeriph_Driver/src/stm32f10x_dac.c **** }
 424              		.loc 1 275 0
 425 0250 07F10C07 		add	r7, r7, #12
 426 0254 BD46     		mov	sp, r7
 427 0256 80BC     		pop	{r7}
 428 0258 7047     		bx	lr
 429              		.cfi_endproc
 430              	.LFE35:
 432 025a 00BF     		.align	2
 433              		.global	DAC_DualSoftwareTriggerCmd
 434              		.thumb
 435              		.thumb_func
 437              	DAC_DualSoftwareTriggerCmd:
 438              	.LFB36:
 276:../Libraries/STM32F10x_StdPeriph_Driver/src/stm32f10x_dac.c **** 
 277:../Libraries/STM32F10x_StdPeriph_Driver/src/stm32f10x_dac.c **** /**
 278:../Libraries/STM32F10x_StdPeriph_Driver/src/stm32f10x_dac.c ****   * @brief  Enables or disables simultaneously the two DAC channels software
 279:../Libraries/STM32F10x_StdPeriph_Driver/src/stm32f10x_dac.c ****   *   triggers.
 280:../Libraries/STM32F10x_StdPeriph_Driver/src/stm32f10x_dac.c ****   * @param  NewState: new state of the DAC channels software triggers.
 281:../Libraries/STM32F10x_StdPeriph_Driver/src/stm32f10x_dac.c ****   *   This parameter can be: ENABLE or DISABLE.
 282:../Libraries/STM32F10x_StdPeriph_Driver/src/stm32f10x_dac.c ****   * @retval None
 283:../Libraries/STM32F10x_StdPeriph_Driver/src/stm32f10x_dac.c ****   */
 284:../Libraries/STM32F10x_StdPeriph_Driver/src/stm32f10x_dac.c **** void DAC_DualSoftwareTriggerCmd(FunctionalState NewState)
 285:../Libraries/STM32F10x_StdPeriph_Driver/src/stm32f10x_dac.c **** {
 439              		.loc 1 285 0
 440              		.cfi_startproc
 441              		@ args = 0, pretend = 0, frame = 8
 442              		@ frame_needed = 1, uses_anonymous_args = 0
 443              		@ link register save eliminated.
 444 025c 80B4     		push	{r7}
 445              	.LCFI20:
 446              		.cfi_def_cfa_offset 4
 447              		.cfi_offset 7, -4
 448 025e 83B0     		sub	sp, sp, #12
 449              	.LCFI21:
 450              		.cfi_def_cfa_offset 16
 451 0260 00AF     		add	r7, sp, #0
 452              	.LCFI22:
 453              		.cfi_def_cfa_register 7
 454 0262 0346     		mov	r3, r0
 455 0264 FB71     		strb	r3, [r7, #7]
 286:../Libraries/STM32F10x_StdPeriph_Driver/src/stm32f10x_dac.c ****   /* Check the parameters */
 287:../Libraries/STM32F10x_StdPeriph_Driver/src/stm32f10x_dac.c ****   assert_param(IS_FUNCTIONAL_STATE(NewState));
 288:../Libraries/STM32F10x_StdPeriph_Driver/src/stm32f10x_dac.c ****   if (NewState != DISABLE)
 456              		.loc 1 288 0
 457 0266 FB79     		ldrb	r3, [r7, #7]	@ zero_extendqisi2
 458 0268 002B     		cmp	r3, #0
 459 026a 0CD0     		beq	.L17
 289:../Libraries/STM32F10x_StdPeriph_Driver/src/stm32f10x_dac.c ****   {
 290:../Libraries/STM32F10x_StdPeriph_Driver/src/stm32f10x_dac.c ****     /* Enable software trigger for both DAC channels */
 291:../Libraries/STM32F10x_StdPeriph_Driver/src/stm32f10x_dac.c ****     DAC->SWTRIGR |= DUAL_SWTRIG_SET ;
 460              		.loc 1 291 0
 461 026c 4FF4E843 		mov	r3, #29696
 462 0270 C4F20003 		movt	r3, 16384
 463 0274 4FF4E842 		mov	r2, #29696
 464 0278 C4F20002 		movt	r2, 16384
 465 027c 5268     		ldr	r2, [r2, #4]
 466 027e 42F00302 		orr	r2, r2, #3
 467 0282 5A60     		str	r2, [r3, #4]
 468 0284 0BE0     		b	.L16
 469              	.L17:
 292:../Libraries/STM32F10x_StdPeriph_Driver/src/stm32f10x_dac.c ****   }
 293:../Libraries/STM32F10x_StdPeriph_Driver/src/stm32f10x_dac.c ****   else
 294:../Libraries/STM32F10x_StdPeriph_Driver/src/stm32f10x_dac.c ****   {
 295:../Libraries/STM32F10x_StdPeriph_Driver/src/stm32f10x_dac.c ****     /* Disable software trigger for both DAC channels */
 296:../Libraries/STM32F10x_StdPeriph_Driver/src/stm32f10x_dac.c ****     DAC->SWTRIGR &= DUAL_SWTRIG_RESET;
 470              		.loc 1 296 0
 471 0286 4FF4E843 		mov	r3, #29696
 472 028a C4F20003 		movt	r3, 16384
 473 028e 4FF4E842 		mov	r2, #29696
 474 0292 C4F20002 		movt	r2, 16384
 475 0296 5268     		ldr	r2, [r2, #4]
 476 0298 22F00302 		bic	r2, r2, #3
 477 029c 5A60     		str	r2, [r3, #4]
 478              	.L16:
 297:../Libraries/STM32F10x_StdPeriph_Driver/src/stm32f10x_dac.c ****   }
 298:../Libraries/STM32F10x_StdPeriph_Driver/src/stm32f10x_dac.c **** }
 479              		.loc 1 298 0
 480 029e 07F10C07 		add	r7, r7, #12
 481 02a2 BD46     		mov	sp, r7
 482 02a4 80BC     		pop	{r7}
 483 02a6 7047     		bx	lr
 484              		.cfi_endproc
 485              	.LFE36:
 487              		.align	2
 488              		.global	DAC_WaveGenerationCmd
 489              		.thumb
 490              		.thumb_func
 492              	DAC_WaveGenerationCmd:
 493              	.LFB37:
 299:../Libraries/STM32F10x_StdPeriph_Driver/src/stm32f10x_dac.c **** 
 300:../Libraries/STM32F10x_StdPeriph_Driver/src/stm32f10x_dac.c **** /**
 301:../Libraries/STM32F10x_StdPeriph_Driver/src/stm32f10x_dac.c ****   * @brief  Enables or disables the selected DAC channel wave generation.
 302:../Libraries/STM32F10x_StdPeriph_Driver/src/stm32f10x_dac.c ****   * @param  DAC_Channel: the selected DAC channel. 
 303:../Libraries/STM32F10x_StdPeriph_Driver/src/stm32f10x_dac.c ****   *   This parameter can be one of the following values:
 304:../Libraries/STM32F10x_StdPeriph_Driver/src/stm32f10x_dac.c ****   *     @arg DAC_Channel_1: DAC Channel1 selected
 305:../Libraries/STM32F10x_StdPeriph_Driver/src/stm32f10x_dac.c ****   *     @arg DAC_Channel_2: DAC Channel2 selected
 306:../Libraries/STM32F10x_StdPeriph_Driver/src/stm32f10x_dac.c ****   * @param  DAC_Wave: Specifies the wave type to enable or disable.
 307:../Libraries/STM32F10x_StdPeriph_Driver/src/stm32f10x_dac.c ****   *   This parameter can be one of the following values:
 308:../Libraries/STM32F10x_StdPeriph_Driver/src/stm32f10x_dac.c ****   *     @arg DAC_Wave_Noise: noise wave generation
 309:../Libraries/STM32F10x_StdPeriph_Driver/src/stm32f10x_dac.c ****   *     @arg DAC_Wave_Triangle: triangle wave generation
 310:../Libraries/STM32F10x_StdPeriph_Driver/src/stm32f10x_dac.c ****   * @param  NewState: new state of the selected DAC channel wave generation.
 311:../Libraries/STM32F10x_StdPeriph_Driver/src/stm32f10x_dac.c ****   *   This parameter can be: ENABLE or DISABLE.
 312:../Libraries/STM32F10x_StdPeriph_Driver/src/stm32f10x_dac.c ****   * @retval None
 313:../Libraries/STM32F10x_StdPeriph_Driver/src/stm32f10x_dac.c ****   */
 314:../Libraries/STM32F10x_StdPeriph_Driver/src/stm32f10x_dac.c **** void DAC_WaveGenerationCmd(uint32_t DAC_Channel, uint32_t DAC_Wave, FunctionalState NewState)
 315:../Libraries/STM32F10x_StdPeriph_Driver/src/stm32f10x_dac.c **** {
 494              		.loc 1 315 0
 495              		.cfi_startproc
 496              		@ args = 0, pretend = 0, frame = 16
 497              		@ frame_needed = 1, uses_anonymous_args = 0
 498              		@ link register save eliminated.
 499 02a8 80B4     		push	{r7}
 500              	.LCFI23:
 501              		.cfi_def_cfa_offset 4
 502              		.cfi_offset 7, -4
 503 02aa 85B0     		sub	sp, sp, #20
 504              	.LCFI24:
 505              		.cfi_def_cfa_offset 24
 506 02ac 00AF     		add	r7, sp, #0
 507              	.LCFI25:
 508              		.cfi_def_cfa_register 7
 509 02ae F860     		str	r0, [r7, #12]
 510 02b0 B960     		str	r1, [r7, #8]
 511 02b2 1346     		mov	r3, r2
 512 02b4 FB71     		strb	r3, [r7, #7]
 316:../Libraries/STM32F10x_StdPeriph_Driver/src/stm32f10x_dac.c ****   /* Check the parameters */
 317:../Libraries/STM32F10x_StdPeriph_Driver/src/stm32f10x_dac.c ****   assert_param(IS_DAC_CHANNEL(DAC_Channel));
 318:../Libraries/STM32F10x_StdPeriph_Driver/src/stm32f10x_dac.c ****   assert_param(IS_DAC_WAVE(DAC_Wave)); 
 319:../Libraries/STM32F10x_StdPeriph_Driver/src/stm32f10x_dac.c ****   assert_param(IS_FUNCTIONAL_STATE(NewState));
 320:../Libraries/STM32F10x_StdPeriph_Driver/src/stm32f10x_dac.c ****   if (NewState != DISABLE)
 513              		.loc 1 320 0
 514 02b6 FB79     		ldrb	r3, [r7, #7]	@ zero_extendqisi2
 515 02b8 002B     		cmp	r3, #0
 516 02ba 0FD0     		beq	.L20
 321:../Libraries/STM32F10x_StdPeriph_Driver/src/stm32f10x_dac.c ****   {
 322:../Libraries/STM32F10x_StdPeriph_Driver/src/stm32f10x_dac.c ****     /* Enable the selected wave generation for the selected DAC channel */
 323:../Libraries/STM32F10x_StdPeriph_Driver/src/stm32f10x_dac.c ****     DAC->CR |= DAC_Wave << DAC_Channel;
 517              		.loc 1 323 0
 518 02bc 4FF4E843 		mov	r3, #29696
 519 02c0 C4F20003 		movt	r3, 16384
 520 02c4 4FF4E842 		mov	r2, #29696
 521 02c8 C4F20002 		movt	r2, 16384
 522 02cc 1168     		ldr	r1, [r2, #0]
 523 02ce FA68     		ldr	r2, [r7, #12]
 524 02d0 B868     		ldr	r0, [r7, #8]
 525 02d2 00FA02F2 		lsl	r2, r0, r2
 526 02d6 0A43     		orrs	r2, r2, r1
 527 02d8 1A60     		str	r2, [r3, #0]
 528 02da 10E0     		b	.L19
 529              	.L20:
 324:../Libraries/STM32F10x_StdPeriph_Driver/src/stm32f10x_dac.c ****   }
 325:../Libraries/STM32F10x_StdPeriph_Driver/src/stm32f10x_dac.c ****   else
 326:../Libraries/STM32F10x_StdPeriph_Driver/src/stm32f10x_dac.c ****   {
 327:../Libraries/STM32F10x_StdPeriph_Driver/src/stm32f10x_dac.c ****     /* Disable the selected wave generation for the selected DAC channel */
 328:../Libraries/STM32F10x_StdPeriph_Driver/src/stm32f10x_dac.c ****     DAC->CR &= ~(DAC_Wave << DAC_Channel);
 530              		.loc 1 328 0
 531 02dc 4FF4E843 		mov	r3, #29696
 532 02e0 C4F20003 		movt	r3, 16384
 533 02e4 4FF4E842 		mov	r2, #29696
 534 02e8 C4F20002 		movt	r2, 16384
 535 02ec 1168     		ldr	r1, [r2, #0]
 536 02ee FA68     		ldr	r2, [r7, #12]
 537 02f0 B868     		ldr	r0, [r7, #8]
 538 02f2 00FA02F2 		lsl	r2, r0, r2
 539 02f6 6FEA0202 		mvn	r2, r2
 540 02fa 0A40     		ands	r2, r2, r1
 541 02fc 1A60     		str	r2, [r3, #0]
 542              	.L19:
 329:../Libraries/STM32F10x_StdPeriph_Driver/src/stm32f10x_dac.c ****   }
 330:../Libraries/STM32F10x_StdPeriph_Driver/src/stm32f10x_dac.c **** }
 543              		.loc 1 330 0
 544 02fe 07F11407 		add	r7, r7, #20
 545 0302 BD46     		mov	sp, r7
 546 0304 80BC     		pop	{r7}
 547 0306 7047     		bx	lr
 548              		.cfi_endproc
 549              	.LFE37:
 551              		.align	2
 552              		.global	DAC_SetChannel1Data
 553              		.thumb
 554              		.thumb_func
 556              	DAC_SetChannel1Data:
 557              	.LFB38:
 331:../Libraries/STM32F10x_StdPeriph_Driver/src/stm32f10x_dac.c **** 
 332:../Libraries/STM32F10x_StdPeriph_Driver/src/stm32f10x_dac.c **** /**
 333:../Libraries/STM32F10x_StdPeriph_Driver/src/stm32f10x_dac.c ****   * @brief  Set the specified data holding register value for DAC channel1.
 334:../Libraries/STM32F10x_StdPeriph_Driver/src/stm32f10x_dac.c ****   * @param  DAC_Align: Specifies the data alignment for DAC channel1.
 335:../Libraries/STM32F10x_StdPeriph_Driver/src/stm32f10x_dac.c ****   *   This parameter can be one of the following values:
 336:../Libraries/STM32F10x_StdPeriph_Driver/src/stm32f10x_dac.c ****   *     @arg DAC_Align_8b_R: 8bit right data alignment selected
 337:../Libraries/STM32F10x_StdPeriph_Driver/src/stm32f10x_dac.c ****   *     @arg DAC_Align_12b_L: 12bit left data alignment selected
 338:../Libraries/STM32F10x_StdPeriph_Driver/src/stm32f10x_dac.c ****   *     @arg DAC_Align_12b_R: 12bit right data alignment selected
 339:../Libraries/STM32F10x_StdPeriph_Driver/src/stm32f10x_dac.c ****   * @param  Data : Data to be loaded in the selected data holding register.
 340:../Libraries/STM32F10x_StdPeriph_Driver/src/stm32f10x_dac.c ****   * @retval None
 341:../Libraries/STM32F10x_StdPeriph_Driver/src/stm32f10x_dac.c ****   */
 342:../Libraries/STM32F10x_StdPeriph_Driver/src/stm32f10x_dac.c **** void DAC_SetChannel1Data(uint32_t DAC_Align, uint16_t Data)
 343:../Libraries/STM32F10x_StdPeriph_Driver/src/stm32f10x_dac.c **** {  
 558              		.loc 1 343 0
 559              		.cfi_startproc
 560              		@ args = 0, pretend = 0, frame = 16
 561              		@ frame_needed = 1, uses_anonymous_args = 0
 562              		@ link register save eliminated.
 563 0308 80B4     		push	{r7}
 564              	.LCFI26:
 565              		.cfi_def_cfa_offset 4
 566              		.cfi_offset 7, -4
 567 030a 85B0     		sub	sp, sp, #20
 568              	.LCFI27:
 569              		.cfi_def_cfa_offset 24
 570 030c 00AF     		add	r7, sp, #0
 571              	.LCFI28:
 572              		.cfi_def_cfa_register 7
 573 030e 7860     		str	r0, [r7, #4]
 574 0310 0B46     		mov	r3, r1
 575 0312 7B80     		strh	r3, [r7, #2]	@ movhi
 344:../Libraries/STM32F10x_StdPeriph_Driver/src/stm32f10x_dac.c ****   __IO uint32_t tmp = 0;
 576              		.loc 1 344 0
 577 0314 4FF00003 		mov	r3, #0
 578 0318 FB60     		str	r3, [r7, #12]
 345:../Libraries/STM32F10x_StdPeriph_Driver/src/stm32f10x_dac.c ****   
 346:../Libraries/STM32F10x_StdPeriph_Driver/src/stm32f10x_dac.c ****   /* Check the parameters */
 347:../Libraries/STM32F10x_StdPeriph_Driver/src/stm32f10x_dac.c ****   assert_param(IS_DAC_ALIGN(DAC_Align));
 348:../Libraries/STM32F10x_StdPeriph_Driver/src/stm32f10x_dac.c ****   assert_param(IS_DAC_DATA(Data));
 349:../Libraries/STM32F10x_StdPeriph_Driver/src/stm32f10x_dac.c ****   
 350:../Libraries/STM32F10x_StdPeriph_Driver/src/stm32f10x_dac.c ****   tmp = (uint32_t)DAC_BASE; 
 579              		.loc 1 350 0
 580 031a 4FF4E843 		mov	r3, #29696
 581 031e C4F20003 		movt	r3, 16384
 582 0322 FB60     		str	r3, [r7, #12]
 351:../Libraries/STM32F10x_StdPeriph_Driver/src/stm32f10x_dac.c ****   tmp += DHR12R1_OFFSET + DAC_Align;
 583              		.loc 1 351 0
 584 0324 FA68     		ldr	r2, [r7, #12]
 585 0326 7B68     		ldr	r3, [r7, #4]
 586 0328 D318     		adds	r3, r2, r3
 587 032a 03F10803 		add	r3, r3, #8
 588 032e FB60     		str	r3, [r7, #12]
 352:../Libraries/STM32F10x_StdPeriph_Driver/src/stm32f10x_dac.c **** 
 353:../Libraries/STM32F10x_StdPeriph_Driver/src/stm32f10x_dac.c ****   /* Set the DAC channel1 selected data holding register */
 354:../Libraries/STM32F10x_StdPeriph_Driver/src/stm32f10x_dac.c ****   *(__IO uint32_t *) tmp = Data;
 589              		.loc 1 354 0
 590 0330 FB68     		ldr	r3, [r7, #12]
 591 0332 7A88     		ldrh	r2, [r7, #2]
 592 0334 1A60     		str	r2, [r3, #0]
 355:../Libraries/STM32F10x_StdPeriph_Driver/src/stm32f10x_dac.c **** }
 593              		.loc 1 355 0
 594 0336 07F11407 		add	r7, r7, #20
 595 033a BD46     		mov	sp, r7
 596 033c 80BC     		pop	{r7}
 597 033e 7047     		bx	lr
 598              		.cfi_endproc
 599              	.LFE38:
 601              		.align	2
 602              		.global	DAC_SetChannel2Data
 603              		.thumb
 604              		.thumb_func
 606              	DAC_SetChannel2Data:
 607              	.LFB39:
 356:../Libraries/STM32F10x_StdPeriph_Driver/src/stm32f10x_dac.c **** 
 357:../Libraries/STM32F10x_StdPeriph_Driver/src/stm32f10x_dac.c **** /**
 358:../Libraries/STM32F10x_StdPeriph_Driver/src/stm32f10x_dac.c ****   * @brief  Set the specified data holding register value for DAC channel2.
 359:../Libraries/STM32F10x_StdPeriph_Driver/src/stm32f10x_dac.c ****   * @param  DAC_Align: Specifies the data alignment for DAC channel2.
 360:../Libraries/STM32F10x_StdPeriph_Driver/src/stm32f10x_dac.c ****   *   This parameter can be one of the following values:
 361:../Libraries/STM32F10x_StdPeriph_Driver/src/stm32f10x_dac.c ****   *     @arg DAC_Align_8b_R: 8bit right data alignment selected
 362:../Libraries/STM32F10x_StdPeriph_Driver/src/stm32f10x_dac.c ****   *     @arg DAC_Align_12b_L: 12bit left data alignment selected
 363:../Libraries/STM32F10x_StdPeriph_Driver/src/stm32f10x_dac.c ****   *     @arg DAC_Align_12b_R: 12bit right data alignment selected
 364:../Libraries/STM32F10x_StdPeriph_Driver/src/stm32f10x_dac.c ****   * @param  Data : Data to be loaded in the selected data holding register.
 365:../Libraries/STM32F10x_StdPeriph_Driver/src/stm32f10x_dac.c ****   * @retval None
 366:../Libraries/STM32F10x_StdPeriph_Driver/src/stm32f10x_dac.c ****   */
 367:../Libraries/STM32F10x_StdPeriph_Driver/src/stm32f10x_dac.c **** void DAC_SetChannel2Data(uint32_t DAC_Align, uint16_t Data)
 368:../Libraries/STM32F10x_StdPeriph_Driver/src/stm32f10x_dac.c **** {
 608              		.loc 1 368 0
 609              		.cfi_startproc
 610              		@ args = 0, pretend = 0, frame = 16
 611              		@ frame_needed = 1, uses_anonymous_args = 0
 612              		@ link register save eliminated.
 613 0340 80B4     		push	{r7}
 614              	.LCFI29:
 615              		.cfi_def_cfa_offset 4
 616              		.cfi_offset 7, -4
 617 0342 85B0     		sub	sp, sp, #20
 618              	.LCFI30:
 619              		.cfi_def_cfa_offset 24
 620 0344 00AF     		add	r7, sp, #0
 621              	.LCFI31:
 622              		.cfi_def_cfa_register 7
 623 0346 7860     		str	r0, [r7, #4]
 624 0348 0B46     		mov	r3, r1
 625 034a 7B80     		strh	r3, [r7, #2]	@ movhi
 369:../Libraries/STM32F10x_StdPeriph_Driver/src/stm32f10x_dac.c ****   __IO uint32_t tmp = 0;
 626              		.loc 1 369 0
 627 034c 4FF00003 		mov	r3, #0
 628 0350 FB60     		str	r3, [r7, #12]
 370:../Libraries/STM32F10x_StdPeriph_Driver/src/stm32f10x_dac.c **** 
 371:../Libraries/STM32F10x_StdPeriph_Driver/src/stm32f10x_dac.c ****   /* Check the parameters */
 372:../Libraries/STM32F10x_StdPeriph_Driver/src/stm32f10x_dac.c ****   assert_param(IS_DAC_ALIGN(DAC_Align));
 373:../Libraries/STM32F10x_StdPeriph_Driver/src/stm32f10x_dac.c ****   assert_param(IS_DAC_DATA(Data));
 374:../Libraries/STM32F10x_StdPeriph_Driver/src/stm32f10x_dac.c ****   
 375:../Libraries/STM32F10x_StdPeriph_Driver/src/stm32f10x_dac.c ****   tmp = (uint32_t)DAC_BASE;
 629              		.loc 1 375 0
 630 0352 4FF4E843 		mov	r3, #29696
 631 0356 C4F20003 		movt	r3, 16384
 632 035a FB60     		str	r3, [r7, #12]
 376:../Libraries/STM32F10x_StdPeriph_Driver/src/stm32f10x_dac.c ****   tmp += DHR12R2_OFFSET + DAC_Align;
 633              		.loc 1 376 0
 634 035c FA68     		ldr	r2, [r7, #12]
 635 035e 7B68     		ldr	r3, [r7, #4]
 636 0360 D318     		adds	r3, r2, r3
 637 0362 03F11403 		add	r3, r3, #20
 638 0366 FB60     		str	r3, [r7, #12]
 377:../Libraries/STM32F10x_StdPeriph_Driver/src/stm32f10x_dac.c **** 
 378:../Libraries/STM32F10x_StdPeriph_Driver/src/stm32f10x_dac.c ****   /* Set the DAC channel2 selected data holding register */
 379:../Libraries/STM32F10x_StdPeriph_Driver/src/stm32f10x_dac.c ****   *(__IO uint32_t *)tmp = Data;
 639              		.loc 1 379 0
 640 0368 FB68     		ldr	r3, [r7, #12]
 641 036a 7A88     		ldrh	r2, [r7, #2]
 642 036c 1A60     		str	r2, [r3, #0]
 380:../Libraries/STM32F10x_StdPeriph_Driver/src/stm32f10x_dac.c **** }
 643              		.loc 1 380 0
 644 036e 07F11407 		add	r7, r7, #20
 645 0372 BD46     		mov	sp, r7
 646 0374 80BC     		pop	{r7}
 647 0376 7047     		bx	lr
 648              		.cfi_endproc
 649              	.LFE39:
 651              		.align	2
 652              		.global	DAC_SetDualChannelData
 653              		.thumb
 654              		.thumb_func
 656              	DAC_SetDualChannelData:
 657              	.LFB40:
 381:../Libraries/STM32F10x_StdPeriph_Driver/src/stm32f10x_dac.c **** 
 382:../Libraries/STM32F10x_StdPeriph_Driver/src/stm32f10x_dac.c **** /**
 383:../Libraries/STM32F10x_StdPeriph_Driver/src/stm32f10x_dac.c ****   * @brief  Set the specified data holding register value for dual channel
 384:../Libraries/STM32F10x_StdPeriph_Driver/src/stm32f10x_dac.c ****   *   DAC.
 385:../Libraries/STM32F10x_StdPeriph_Driver/src/stm32f10x_dac.c ****   * @param  DAC_Align: Specifies the data alignment for dual channel DAC.
 386:../Libraries/STM32F10x_StdPeriph_Driver/src/stm32f10x_dac.c ****   *   This parameter can be one of the following values:
 387:../Libraries/STM32F10x_StdPeriph_Driver/src/stm32f10x_dac.c ****   *     @arg DAC_Align_8b_R: 8bit right data alignment selected
 388:../Libraries/STM32F10x_StdPeriph_Driver/src/stm32f10x_dac.c ****   *     @arg DAC_Align_12b_L: 12bit left data alignment selected
 389:../Libraries/STM32F10x_StdPeriph_Driver/src/stm32f10x_dac.c ****   *     @arg DAC_Align_12b_R: 12bit right data alignment selected
 390:../Libraries/STM32F10x_StdPeriph_Driver/src/stm32f10x_dac.c ****   * @param  Data2: Data for DAC Channel2 to be loaded in the selected data 
 391:../Libraries/STM32F10x_StdPeriph_Driver/src/stm32f10x_dac.c ****   *   holding register.
 392:../Libraries/STM32F10x_StdPeriph_Driver/src/stm32f10x_dac.c ****   * @param  Data1: Data for DAC Channel1 to be loaded in the selected data 
 393:../Libraries/STM32F10x_StdPeriph_Driver/src/stm32f10x_dac.c ****   *   holding register.
 394:../Libraries/STM32F10x_StdPeriph_Driver/src/stm32f10x_dac.c ****   * @retval None
 395:../Libraries/STM32F10x_StdPeriph_Driver/src/stm32f10x_dac.c ****   */
 396:../Libraries/STM32F10x_StdPeriph_Driver/src/stm32f10x_dac.c **** void DAC_SetDualChannelData(uint32_t DAC_Align, uint16_t Data2, uint16_t Data1)
 397:../Libraries/STM32F10x_StdPeriph_Driver/src/stm32f10x_dac.c **** {
 658              		.loc 1 397 0
 659              		.cfi_startproc
 660              		@ args = 0, pretend = 0, frame = 16
 661              		@ frame_needed = 1, uses_anonymous_args = 0
 662              		@ link register save eliminated.
 663 0378 80B4     		push	{r7}
 664              	.LCFI32:
 665              		.cfi_def_cfa_offset 4
 666              		.cfi_offset 7, -4
 667 037a 85B0     		sub	sp, sp, #20
 668              	.LCFI33:
 669              		.cfi_def_cfa_offset 24
 670 037c 00AF     		add	r7, sp, #0
 671              	.LCFI34:
 672              		.cfi_def_cfa_register 7
 673 037e 7860     		str	r0, [r7, #4]
 674 0380 1346     		mov	r3, r2
 675 0382 0A46     		mov	r2, r1	@ movhi
 676 0384 7A80     		strh	r2, [r7, #2]	@ movhi
 677 0386 3B80     		strh	r3, [r7, #0]	@ movhi
 398:../Libraries/STM32F10x_StdPeriph_Driver/src/stm32f10x_dac.c ****   uint32_t data = 0, tmp = 0;
 678              		.loc 1 398 0
 679 0388 4FF00003 		mov	r3, #0
 680 038c FB60     		str	r3, [r7, #12]
 681 038e 4FF00003 		mov	r3, #0
 682 0392 BB60     		str	r3, [r7, #8]
 399:../Libraries/STM32F10x_StdPeriph_Driver/src/stm32f10x_dac.c ****   
 400:../Libraries/STM32F10x_StdPeriph_Driver/src/stm32f10x_dac.c ****   /* Check the parameters */
 401:../Libraries/STM32F10x_StdPeriph_Driver/src/stm32f10x_dac.c ****   assert_param(IS_DAC_ALIGN(DAC_Align));
 402:../Libraries/STM32F10x_StdPeriph_Driver/src/stm32f10x_dac.c ****   assert_param(IS_DAC_DATA(Data1));
 403:../Libraries/STM32F10x_StdPeriph_Driver/src/stm32f10x_dac.c ****   assert_param(IS_DAC_DATA(Data2));
 404:../Libraries/STM32F10x_StdPeriph_Driver/src/stm32f10x_dac.c ****   
 405:../Libraries/STM32F10x_StdPeriph_Driver/src/stm32f10x_dac.c ****   /* Calculate and set dual DAC data holding register value */
 406:../Libraries/STM32F10x_StdPeriph_Driver/src/stm32f10x_dac.c ****   if (DAC_Align == DAC_Align_8b_R)
 683              		.loc 1 406 0
 684 0394 7B68     		ldr	r3, [r7, #4]
 685 0396 082B     		cmp	r3, #8
 686 0398 06D1     		bne	.L25
 407:../Libraries/STM32F10x_StdPeriph_Driver/src/stm32f10x_dac.c ****   {
 408:../Libraries/STM32F10x_StdPeriph_Driver/src/stm32f10x_dac.c ****     data = ((uint32_t)Data2 << 8) | Data1; 
 687              		.loc 1 408 0
 688 039a 7B88     		ldrh	r3, [r7, #2]
 689 039c 4FEA0322 		lsl	r2, r3, #8
 690 03a0 3B88     		ldrh	r3, [r7, #0]
 691 03a2 1343     		orrs	r3, r3, r2
 692 03a4 FB60     		str	r3, [r7, #12]
 693 03a6 05E0     		b	.L26
 694              	.L25:
 409:../Libraries/STM32F10x_StdPeriph_Driver/src/stm32f10x_dac.c ****   }
 410:../Libraries/STM32F10x_StdPeriph_Driver/src/stm32f10x_dac.c ****   else
 411:../Libraries/STM32F10x_StdPeriph_Driver/src/stm32f10x_dac.c ****   {
 412:../Libraries/STM32F10x_StdPeriph_Driver/src/stm32f10x_dac.c ****     data = ((uint32_t)Data2 << 16) | Data1;
 695              		.loc 1 412 0
 696 03a8 7B88     		ldrh	r3, [r7, #2]
 697 03aa 4FEA0342 		lsl	r2, r3, #16
 698 03ae 3B88     		ldrh	r3, [r7, #0]
 699 03b0 1343     		orrs	r3, r3, r2
 700 03b2 FB60     		str	r3, [r7, #12]
 701              	.L26:
 413:../Libraries/STM32F10x_StdPeriph_Driver/src/stm32f10x_dac.c ****   }
 414:../Libraries/STM32F10x_StdPeriph_Driver/src/stm32f10x_dac.c ****   
 415:../Libraries/STM32F10x_StdPeriph_Driver/src/stm32f10x_dac.c ****   tmp = (uint32_t)DAC_BASE;
 702              		.loc 1 415 0
 703 03b4 4FF4E843 		mov	r3, #29696
 704 03b8 C4F20003 		movt	r3, 16384
 705 03bc BB60     		str	r3, [r7, #8]
 416:../Libraries/STM32F10x_StdPeriph_Driver/src/stm32f10x_dac.c ****   tmp += DHR12RD_OFFSET + DAC_Align;
 706              		.loc 1 416 0
 707 03be 7A68     		ldr	r2, [r7, #4]
 708 03c0 BB68     		ldr	r3, [r7, #8]
 709 03c2 D318     		adds	r3, r2, r3
 710 03c4 03F12003 		add	r3, r3, #32
 711 03c8 BB60     		str	r3, [r7, #8]
 417:../Libraries/STM32F10x_StdPeriph_Driver/src/stm32f10x_dac.c **** 
 418:../Libraries/STM32F10x_StdPeriph_Driver/src/stm32f10x_dac.c ****   /* Set the dual DAC selected data holding register */
 419:../Libraries/STM32F10x_StdPeriph_Driver/src/stm32f10x_dac.c ****   *(__IO uint32_t *)tmp = data;
 712              		.loc 1 419 0
 713 03ca BB68     		ldr	r3, [r7, #8]
 714 03cc FA68     		ldr	r2, [r7, #12]
 715 03ce 1A60     		str	r2, [r3, #0]
 420:../Libraries/STM32F10x_StdPeriph_Driver/src/stm32f10x_dac.c **** }
 716              		.loc 1 420 0
 717 03d0 07F11407 		add	r7, r7, #20
 718 03d4 BD46     		mov	sp, r7
 719 03d6 80BC     		pop	{r7}
 720 03d8 7047     		bx	lr
 721              		.cfi_endproc
 722              	.LFE40:
 724 03da 00BF     		.align	2
 725              		.global	DAC_GetDataOutputValue
 726              		.thumb
 727              		.thumb_func
 729              	DAC_GetDataOutputValue:
 730              	.LFB41:
 421:../Libraries/STM32F10x_StdPeriph_Driver/src/stm32f10x_dac.c **** 
 422:../Libraries/STM32F10x_StdPeriph_Driver/src/stm32f10x_dac.c **** /**
 423:../Libraries/STM32F10x_StdPeriph_Driver/src/stm32f10x_dac.c ****   * @brief  Returns the last data output value of the selected DAC channel.
 424:../Libraries/STM32F10x_StdPeriph_Driver/src/stm32f10x_dac.c ****   * @param  DAC_Channel: the selected DAC channel. 
 425:../Libraries/STM32F10x_StdPeriph_Driver/src/stm32f10x_dac.c ****   *   This parameter can be one of the following values:
 426:../Libraries/STM32F10x_StdPeriph_Driver/src/stm32f10x_dac.c ****   *     @arg DAC_Channel_1: DAC Channel1 selected
 427:../Libraries/STM32F10x_StdPeriph_Driver/src/stm32f10x_dac.c ****   *     @arg DAC_Channel_2: DAC Channel2 selected
 428:../Libraries/STM32F10x_StdPeriph_Driver/src/stm32f10x_dac.c ****   * @retval The selected DAC channel data output value.
 429:../Libraries/STM32F10x_StdPeriph_Driver/src/stm32f10x_dac.c ****   */
 430:../Libraries/STM32F10x_StdPeriph_Driver/src/stm32f10x_dac.c **** uint16_t DAC_GetDataOutputValue(uint32_t DAC_Channel)
 431:../Libraries/STM32F10x_StdPeriph_Driver/src/stm32f10x_dac.c **** {
 731              		.loc 1 431 0
 732              		.cfi_startproc
 733              		@ args = 0, pretend = 0, frame = 16
 734              		@ frame_needed = 1, uses_anonymous_args = 0
 735              		@ link register save eliminated.
 736 03dc 80B4     		push	{r7}
 737              	.LCFI35:
 738              		.cfi_def_cfa_offset 4
 739              		.cfi_offset 7, -4
 740 03de 85B0     		sub	sp, sp, #20
 741              	.LCFI36:
 742              		.cfi_def_cfa_offset 24
 743 03e0 00AF     		add	r7, sp, #0
 744              	.LCFI37:
 745              		.cfi_def_cfa_register 7
 746 03e2 7860     		str	r0, [r7, #4]
 432:../Libraries/STM32F10x_StdPeriph_Driver/src/stm32f10x_dac.c ****   __IO uint32_t tmp = 0;
 747              		.loc 1 432 0
 748 03e4 4FF00003 		mov	r3, #0
 749 03e8 FB60     		str	r3, [r7, #12]
 433:../Libraries/STM32F10x_StdPeriph_Driver/src/stm32f10x_dac.c ****   
 434:../Libraries/STM32F10x_StdPeriph_Driver/src/stm32f10x_dac.c ****   /* Check the parameters */
 435:../Libraries/STM32F10x_StdPeriph_Driver/src/stm32f10x_dac.c ****   assert_param(IS_DAC_CHANNEL(DAC_Channel));
 436:../Libraries/STM32F10x_StdPeriph_Driver/src/stm32f10x_dac.c ****   
 437:../Libraries/STM32F10x_StdPeriph_Driver/src/stm32f10x_dac.c ****   tmp = (uint32_t) DAC_BASE ;
 750              		.loc 1 437 0
 751 03ea 4FF4E843 		mov	r3, #29696
 752 03ee C4F20003 		movt	r3, 16384
 753 03f2 FB60     		str	r3, [r7, #12]
 438:../Libraries/STM32F10x_StdPeriph_Driver/src/stm32f10x_dac.c ****   tmp += DOR_OFFSET + ((uint32_t)DAC_Channel >> 2);
 754              		.loc 1 438 0
 755 03f4 7B68     		ldr	r3, [r7, #4]
 756 03f6 4FEA9302 		lsr	r2, r3, #2
 757 03fa FB68     		ldr	r3, [r7, #12]
 758 03fc D318     		adds	r3, r2, r3
 759 03fe 03F12C03 		add	r3, r3, #44
 760 0402 FB60     		str	r3, [r7, #12]
 439:../Libraries/STM32F10x_StdPeriph_Driver/src/stm32f10x_dac.c ****   
 440:../Libraries/STM32F10x_StdPeriph_Driver/src/stm32f10x_dac.c ****   /* Returns the DAC channel data output register value */
 441:../Libraries/STM32F10x_StdPeriph_Driver/src/stm32f10x_dac.c ****   return (uint16_t) (*(__IO uint32_t*) tmp);
 761              		.loc 1 441 0
 762 0404 FB68     		ldr	r3, [r7, #12]
 763 0406 1B68     		ldr	r3, [r3, #0]
 764 0408 9BB2     		uxth	r3, r3
 442:../Libraries/STM32F10x_StdPeriph_Driver/src/stm32f10x_dac.c **** }
 765              		.loc 1 442 0
 766 040a 1846     		mov	r0, r3
 767 040c 07F11407 		add	r7, r7, #20
 768 0410 BD46     		mov	sp, r7
 769 0412 80BC     		pop	{r7}
 770 0414 7047     		bx	lr
 771              		.cfi_endproc
 772              	.LFE41:
 774 0416 00BF     		.align	2
 775              		.global	DAC_GetFlagStatus
 776              		.thumb
 777              		.thumb_func
 779              	DAC_GetFlagStatus:
 780              	.LFB42:
 443:../Libraries/STM32F10x_StdPeriph_Driver/src/stm32f10x_dac.c **** 
 444:../Libraries/STM32F10x_StdPeriph_Driver/src/stm32f10x_dac.c **** #if defined (STM32F10X_LD_VL) || defined (STM32F10X_MD_VL) || defined (STM32F10X_HD_VL)
 445:../Libraries/STM32F10x_StdPeriph_Driver/src/stm32f10x_dac.c **** /**
 446:../Libraries/STM32F10x_StdPeriph_Driver/src/stm32f10x_dac.c ****   * @brief  Checks whether the specified DAC flag is set or not.
 447:../Libraries/STM32F10x_StdPeriph_Driver/src/stm32f10x_dac.c ****   * @param  DAC_Channel: thee selected DAC channel. 
 448:../Libraries/STM32F10x_StdPeriph_Driver/src/stm32f10x_dac.c ****   *   This parameter can be one of the following values:
 449:../Libraries/STM32F10x_StdPeriph_Driver/src/stm32f10x_dac.c ****   *     @arg DAC_Channel_1: DAC Channel1 selected
 450:../Libraries/STM32F10x_StdPeriph_Driver/src/stm32f10x_dac.c ****   *     @arg DAC_Channel_2: DAC Channel2 selected
 451:../Libraries/STM32F10x_StdPeriph_Driver/src/stm32f10x_dac.c ****   * @param  DAC_FLAG: specifies the flag to check. 
 452:../Libraries/STM32F10x_StdPeriph_Driver/src/stm32f10x_dac.c ****   *   This parameter can be only of the following value:
 453:../Libraries/STM32F10x_StdPeriph_Driver/src/stm32f10x_dac.c ****   *     @arg DAC_FLAG_DMAUDR: DMA underrun flag                                                 
 454:../Libraries/STM32F10x_StdPeriph_Driver/src/stm32f10x_dac.c ****   * @retval The new state of DAC_FLAG (SET or RESET).
 455:../Libraries/STM32F10x_StdPeriph_Driver/src/stm32f10x_dac.c ****   */
 456:../Libraries/STM32F10x_StdPeriph_Driver/src/stm32f10x_dac.c **** FlagStatus DAC_GetFlagStatus(uint32_t DAC_Channel, uint32_t DAC_FLAG)
 457:../Libraries/STM32F10x_StdPeriph_Driver/src/stm32f10x_dac.c **** {
 781              		.loc 1 457 0
 782              		.cfi_startproc
 783              		@ args = 0, pretend = 0, frame = 16
 784              		@ frame_needed = 1, uses_anonymous_args = 0
 785              		@ link register save eliminated.
 786 0418 80B4     		push	{r7}
 787              	.LCFI38:
 788              		.cfi_def_cfa_offset 4
 789              		.cfi_offset 7, -4
 790 041a 85B0     		sub	sp, sp, #20
 791              	.LCFI39:
 792              		.cfi_def_cfa_offset 24
 793 041c 00AF     		add	r7, sp, #0
 794              	.LCFI40:
 795              		.cfi_def_cfa_register 7
 796 041e 7860     		str	r0, [r7, #4]
 797 0420 3960     		str	r1, [r7, #0]
 458:../Libraries/STM32F10x_StdPeriph_Driver/src/stm32f10x_dac.c ****   FlagStatus bitstatus = RESET;
 798              		.loc 1 458 0
 799 0422 4FF00003 		mov	r3, #0
 800 0426 FB73     		strb	r3, [r7, #15]
 459:../Libraries/STM32F10x_StdPeriph_Driver/src/stm32f10x_dac.c ****   /* Check the parameters */
 460:../Libraries/STM32F10x_StdPeriph_Driver/src/stm32f10x_dac.c ****   assert_param(IS_DAC_CHANNEL(DAC_Channel));
 461:../Libraries/STM32F10x_StdPeriph_Driver/src/stm32f10x_dac.c ****   assert_param(IS_DAC_FLAG(DAC_FLAG));
 462:../Libraries/STM32F10x_StdPeriph_Driver/src/stm32f10x_dac.c **** 
 463:../Libraries/STM32F10x_StdPeriph_Driver/src/stm32f10x_dac.c ****   /* Check the status of the specified DAC flag */
 464:../Libraries/STM32F10x_StdPeriph_Driver/src/stm32f10x_dac.c ****   if ((DAC->SR & (DAC_FLAG << DAC_Channel)) != (uint8_t)RESET)
 801              		.loc 1 464 0
 802 0428 4FF4E843 		mov	r3, #29696
 803 042c C4F20003 		movt	r3, 16384
 804 0430 5A6B     		ldr	r2, [r3, #52]
 805 0432 7B68     		ldr	r3, [r7, #4]
 806 0434 3968     		ldr	r1, [r7, #0]
 807 0436 01FA03F3 		lsl	r3, r1, r3
 808 043a 1340     		ands	r3, r3, r2
 809 043c 002B     		cmp	r3, #0
 810 043e 03D0     		beq	.L29
 465:../Libraries/STM32F10x_StdPeriph_Driver/src/stm32f10x_dac.c ****   {
 466:../Libraries/STM32F10x_StdPeriph_Driver/src/stm32f10x_dac.c ****     /* DAC_FLAG is set */
 467:../Libraries/STM32F10x_StdPeriph_Driver/src/stm32f10x_dac.c ****     bitstatus = SET;
 811              		.loc 1 467 0
 812 0440 4FF00103 		mov	r3, #1
 813 0444 FB73     		strb	r3, [r7, #15]
 814 0446 02E0     		b	.L30
 815              	.L29:
 468:../Libraries/STM32F10x_StdPeriph_Driver/src/stm32f10x_dac.c ****   }
 469:../Libraries/STM32F10x_StdPeriph_Driver/src/stm32f10x_dac.c ****   else
 470:../Libraries/STM32F10x_StdPeriph_Driver/src/stm32f10x_dac.c ****   {
 471:../Libraries/STM32F10x_StdPeriph_Driver/src/stm32f10x_dac.c ****     /* DAC_FLAG is reset */
 472:../Libraries/STM32F10x_StdPeriph_Driver/src/stm32f10x_dac.c ****     bitstatus = RESET;
 816              		.loc 1 472 0
 817 0448 4FF00003 		mov	r3, #0
 818 044c FB73     		strb	r3, [r7, #15]
 819              	.L30:
 473:../Libraries/STM32F10x_StdPeriph_Driver/src/stm32f10x_dac.c ****   }
 474:../Libraries/STM32F10x_StdPeriph_Driver/src/stm32f10x_dac.c ****   /* Return the DAC_FLAG status */
 475:../Libraries/STM32F10x_StdPeriph_Driver/src/stm32f10x_dac.c ****   return  bitstatus;
 820              		.loc 1 475 0
 821 044e FB7B     		ldrb	r3, [r7, #15]	@ zero_extendqisi2
 476:../Libraries/STM32F10x_StdPeriph_Driver/src/stm32f10x_dac.c **** }
 822              		.loc 1 476 0
 823 0450 1846     		mov	r0, r3
 824 0452 07F11407 		add	r7, r7, #20
 825 0456 BD46     		mov	sp, r7
 826 0458 80BC     		pop	{r7}
 827 045a 7047     		bx	lr
 828              		.cfi_endproc
 829              	.LFE42:
 831              		.align	2
 832              		.global	DAC_ClearFlag
 833              		.thumb
 834              		.thumb_func
 836              	DAC_ClearFlag:
 837              	.LFB43:
 477:../Libraries/STM32F10x_StdPeriph_Driver/src/stm32f10x_dac.c **** 
 478:../Libraries/STM32F10x_StdPeriph_Driver/src/stm32f10x_dac.c **** /**
 479:../Libraries/STM32F10x_StdPeriph_Driver/src/stm32f10x_dac.c ****   * @brief  Clears the DAC channelx's pending flags.
 480:../Libraries/STM32F10x_StdPeriph_Driver/src/stm32f10x_dac.c ****   * @param  DAC_Channel: the selected DAC channel. 
 481:../Libraries/STM32F10x_StdPeriph_Driver/src/stm32f10x_dac.c ****   *   This parameter can be one of the following values:
 482:../Libraries/STM32F10x_StdPeriph_Driver/src/stm32f10x_dac.c ****   *     @arg DAC_Channel_1: DAC Channel1 selected
 483:../Libraries/STM32F10x_StdPeriph_Driver/src/stm32f10x_dac.c ****   *     @arg DAC_Channel_2: DAC Channel2 selected
 484:../Libraries/STM32F10x_StdPeriph_Driver/src/stm32f10x_dac.c ****   * @param  DAC_FLAG: specifies the flag to clear. 
 485:../Libraries/STM32F10x_StdPeriph_Driver/src/stm32f10x_dac.c ****   *   This parameter can be of the following value:
 486:../Libraries/STM32F10x_StdPeriph_Driver/src/stm32f10x_dac.c ****   *     @arg DAC_FLAG_DMAUDR: DMA underrun flag                           
 487:../Libraries/STM32F10x_StdPeriph_Driver/src/stm32f10x_dac.c ****   * @retval None
 488:../Libraries/STM32F10x_StdPeriph_Driver/src/stm32f10x_dac.c ****   */
 489:../Libraries/STM32F10x_StdPeriph_Driver/src/stm32f10x_dac.c **** void DAC_ClearFlag(uint32_t DAC_Channel, uint32_t DAC_FLAG)
 490:../Libraries/STM32F10x_StdPeriph_Driver/src/stm32f10x_dac.c **** {
 838              		.loc 1 490 0
 839              		.cfi_startproc
 840              		@ args = 0, pretend = 0, frame = 8
 841              		@ frame_needed = 1, uses_anonymous_args = 0
 842              		@ link register save eliminated.
 843 045c 80B4     		push	{r7}
 844              	.LCFI41:
 845              		.cfi_def_cfa_offset 4
 846              		.cfi_offset 7, -4
 847 045e 83B0     		sub	sp, sp, #12
 848              	.LCFI42:
 849              		.cfi_def_cfa_offset 16
 850 0460 00AF     		add	r7, sp, #0
 851              	.LCFI43:
 852              		.cfi_def_cfa_register 7
 853 0462 7860     		str	r0, [r7, #4]
 854 0464 3960     		str	r1, [r7, #0]
 491:../Libraries/STM32F10x_StdPeriph_Driver/src/stm32f10x_dac.c ****   /* Check the parameters */
 492:../Libraries/STM32F10x_StdPeriph_Driver/src/stm32f10x_dac.c ****   assert_param(IS_DAC_CHANNEL(DAC_Channel));
 493:../Libraries/STM32F10x_StdPeriph_Driver/src/stm32f10x_dac.c ****   assert_param(IS_DAC_FLAG(DAC_FLAG));
 494:../Libraries/STM32F10x_StdPeriph_Driver/src/stm32f10x_dac.c **** 
 495:../Libraries/STM32F10x_StdPeriph_Driver/src/stm32f10x_dac.c ****   /* Clear the selected DAC flags */
 496:../Libraries/STM32F10x_StdPeriph_Driver/src/stm32f10x_dac.c ****   DAC->SR = (DAC_FLAG << DAC_Channel);
 855              		.loc 1 496 0
 856 0466 4FF4E843 		mov	r3, #29696
 857 046a C4F20003 		movt	r3, 16384
 858 046e 7A68     		ldr	r2, [r7, #4]
 859 0470 3968     		ldr	r1, [r7, #0]
 860 0472 01FA02F2 		lsl	r2, r1, r2
 861 0476 5A63     		str	r2, [r3, #52]
 497:../Libraries/STM32F10x_StdPeriph_Driver/src/stm32f10x_dac.c **** }
 862              		.loc 1 497 0
 863 0478 07F10C07 		add	r7, r7, #12
 864 047c BD46     		mov	sp, r7
 865 047e 80BC     		pop	{r7}
 866 0480 7047     		bx	lr
 867              		.cfi_endproc
 868              	.LFE43:
 870 0482 00BF     		.align	2
 871              		.global	DAC_GetITStatus
 872              		.thumb
 873              		.thumb_func
 875              	DAC_GetITStatus:
 876              	.LFB44:
 498:../Libraries/STM32F10x_StdPeriph_Driver/src/stm32f10x_dac.c **** 
 499:../Libraries/STM32F10x_StdPeriph_Driver/src/stm32f10x_dac.c **** /**
 500:../Libraries/STM32F10x_StdPeriph_Driver/src/stm32f10x_dac.c ****   * @brief  Checks whether the specified DAC interrupt has occurred or not.
 501:../Libraries/STM32F10x_StdPeriph_Driver/src/stm32f10x_dac.c ****   * @param  DAC_Channel: the selected DAC channel. 
 502:../Libraries/STM32F10x_StdPeriph_Driver/src/stm32f10x_dac.c ****   *   This parameter can be one of the following values:
 503:../Libraries/STM32F10x_StdPeriph_Driver/src/stm32f10x_dac.c ****   *     @arg DAC_Channel_1: DAC Channel1 selected
 504:../Libraries/STM32F10x_StdPeriph_Driver/src/stm32f10x_dac.c ****   *     @arg DAC_Channel_2: DAC Channel2 selected
 505:../Libraries/STM32F10x_StdPeriph_Driver/src/stm32f10x_dac.c ****   * @param  DAC_IT: specifies the DAC interrupt source to check. 
 506:../Libraries/STM32F10x_StdPeriph_Driver/src/stm32f10x_dac.c ****   *   This parameter can be the following values:
 507:../Libraries/STM32F10x_StdPeriph_Driver/src/stm32f10x_dac.c ****   *     @arg DAC_IT_DMAUDR: DMA underrun interrupt mask                       
 508:../Libraries/STM32F10x_StdPeriph_Driver/src/stm32f10x_dac.c ****   * @retval The new state of DAC_IT (SET or RESET).
 509:../Libraries/STM32F10x_StdPeriph_Driver/src/stm32f10x_dac.c ****   */
 510:../Libraries/STM32F10x_StdPeriph_Driver/src/stm32f10x_dac.c **** ITStatus DAC_GetITStatus(uint32_t DAC_Channel, uint32_t DAC_IT)
 511:../Libraries/STM32F10x_StdPeriph_Driver/src/stm32f10x_dac.c **** {
 877              		.loc 1 511 0
 878              		.cfi_startproc
 879              		@ args = 0, pretend = 0, frame = 16
 880              		@ frame_needed = 1, uses_anonymous_args = 0
 881              		@ link register save eliminated.
 882 0484 80B4     		push	{r7}
 883              	.LCFI44:
 884              		.cfi_def_cfa_offset 4
 885              		.cfi_offset 7, -4
 886 0486 85B0     		sub	sp, sp, #20
 887              	.LCFI45:
 888              		.cfi_def_cfa_offset 24
 889 0488 00AF     		add	r7, sp, #0
 890              	.LCFI46:
 891              		.cfi_def_cfa_register 7
 892 048a 7860     		str	r0, [r7, #4]
 893 048c 3960     		str	r1, [r7, #0]
 512:../Libraries/STM32F10x_StdPeriph_Driver/src/stm32f10x_dac.c ****   ITStatus bitstatus = RESET;
 894              		.loc 1 512 0
 895 048e 4FF00003 		mov	r3, #0
 896 0492 FB73     		strb	r3, [r7, #15]
 513:../Libraries/STM32F10x_StdPeriph_Driver/src/stm32f10x_dac.c ****   uint32_t enablestatus = 0;
 897              		.loc 1 513 0
 898 0494 4FF00003 		mov	r3, #0
 899 0498 BB60     		str	r3, [r7, #8]
 514:../Libraries/STM32F10x_StdPeriph_Driver/src/stm32f10x_dac.c ****   
 515:../Libraries/STM32F10x_StdPeriph_Driver/src/stm32f10x_dac.c ****   /* Check the parameters */
 516:../Libraries/STM32F10x_StdPeriph_Driver/src/stm32f10x_dac.c ****   assert_param(IS_DAC_CHANNEL(DAC_Channel));
 517:../Libraries/STM32F10x_StdPeriph_Driver/src/stm32f10x_dac.c ****   assert_param(IS_DAC_IT(DAC_IT));
 518:../Libraries/STM32F10x_StdPeriph_Driver/src/stm32f10x_dac.c **** 
 519:../Libraries/STM32F10x_StdPeriph_Driver/src/stm32f10x_dac.c ****   /* Get the DAC_IT enable bit status */
 520:../Libraries/STM32F10x_StdPeriph_Driver/src/stm32f10x_dac.c ****   enablestatus = (DAC->CR & (DAC_IT << DAC_Channel)) ;
 900              		.loc 1 520 0
 901 049a 4FF4E843 		mov	r3, #29696
 902 049e C4F20003 		movt	r3, 16384
 903 04a2 1A68     		ldr	r2, [r3, #0]
 904 04a4 7B68     		ldr	r3, [r7, #4]
 905 04a6 3968     		ldr	r1, [r7, #0]
 906 04a8 01FA03F3 		lsl	r3, r1, r3
 907 04ac 1340     		ands	r3, r3, r2
 908 04ae BB60     		str	r3, [r7, #8]
 521:../Libraries/STM32F10x_StdPeriph_Driver/src/stm32f10x_dac.c ****   
 522:../Libraries/STM32F10x_StdPeriph_Driver/src/stm32f10x_dac.c ****   /* Check the status of the specified DAC interrupt */
 523:../Libraries/STM32F10x_StdPeriph_Driver/src/stm32f10x_dac.c ****   if (((DAC->SR & (DAC_IT << DAC_Channel)) != (uint32_t)RESET) && enablestatus)
 909              		.loc 1 523 0
 910 04b0 4FF4E843 		mov	r3, #29696
 911 04b4 C4F20003 		movt	r3, 16384
 912 04b8 5A6B     		ldr	r2, [r3, #52]
 913 04ba 7B68     		ldr	r3, [r7, #4]
 914 04bc 3968     		ldr	r1, [r7, #0]
 915 04be 01FA03F3 		lsl	r3, r1, r3
 916 04c2 1340     		ands	r3, r3, r2
 917 04c4 002B     		cmp	r3, #0
 918 04c6 06D0     		beq	.L33
 919              		.loc 1 523 0 is_stmt 0 discriminator 1
 920 04c8 BB68     		ldr	r3, [r7, #8]
 921 04ca 002B     		cmp	r3, #0
 922 04cc 03D0     		beq	.L33
 524:../Libraries/STM32F10x_StdPeriph_Driver/src/stm32f10x_dac.c ****   {
 525:../Libraries/STM32F10x_StdPeriph_Driver/src/stm32f10x_dac.c ****     /* DAC_IT is set */
 526:../Libraries/STM32F10x_StdPeriph_Driver/src/stm32f10x_dac.c ****     bitstatus = SET;
 923              		.loc 1 526 0 is_stmt 1
 924 04ce 4FF00103 		mov	r3, #1
 925 04d2 FB73     		strb	r3, [r7, #15]
 926 04d4 02E0     		b	.L34
 927              	.L33:
 527:../Libraries/STM32F10x_StdPeriph_Driver/src/stm32f10x_dac.c ****   }
 528:../Libraries/STM32F10x_StdPeriph_Driver/src/stm32f10x_dac.c ****   else
 529:../Libraries/STM32F10x_StdPeriph_Driver/src/stm32f10x_dac.c ****   {
 530:../Libraries/STM32F10x_StdPeriph_Driver/src/stm32f10x_dac.c ****     /* DAC_IT is reset */
 531:../Libraries/STM32F10x_StdPeriph_Driver/src/stm32f10x_dac.c ****     bitstatus = RESET;
 928              		.loc 1 531 0
 929 04d6 4FF00003 		mov	r3, #0
 930 04da FB73     		strb	r3, [r7, #15]
 931              	.L34:
 532:../Libraries/STM32F10x_StdPeriph_Driver/src/stm32f10x_dac.c ****   }
 533:../Libraries/STM32F10x_StdPeriph_Driver/src/stm32f10x_dac.c ****   /* Return the DAC_IT status */
 534:../Libraries/STM32F10x_StdPeriph_Driver/src/stm32f10x_dac.c ****   return  bitstatus;
 932              		.loc 1 534 0
 933 04dc FB7B     		ldrb	r3, [r7, #15]	@ zero_extendqisi2
 535:../Libraries/STM32F10x_StdPeriph_Driver/src/stm32f10x_dac.c **** }
 934              		.loc 1 535 0
 935 04de 1846     		mov	r0, r3
 936 04e0 07F11407 		add	r7, r7, #20
 937 04e4 BD46     		mov	sp, r7
 938 04e6 80BC     		pop	{r7}
 939 04e8 7047     		bx	lr
 940              		.cfi_endproc
 941              	.LFE44:
 943 04ea 00BF     		.align	2
 944              		.global	DAC_ClearITPendingBit
 945              		.thumb
 946              		.thumb_func
 948              	DAC_ClearITPendingBit:
 949              	.LFB45:
 536:../Libraries/STM32F10x_StdPeriph_Driver/src/stm32f10x_dac.c **** 
 537:../Libraries/STM32F10x_StdPeriph_Driver/src/stm32f10x_dac.c **** /**
 538:../Libraries/STM32F10x_StdPeriph_Driver/src/stm32f10x_dac.c ****   * @brief  Clears the DAC channelx's interrupt pending bits.
 539:../Libraries/STM32F10x_StdPeriph_Driver/src/stm32f10x_dac.c ****   * @param  DAC_Channel: the selected DAC channel. 
 540:../Libraries/STM32F10x_StdPeriph_Driver/src/stm32f10x_dac.c ****   *   This parameter can be one of the following values:
 541:../Libraries/STM32F10x_StdPeriph_Driver/src/stm32f10x_dac.c ****   *     @arg DAC_Channel_1: DAC Channel1 selected
 542:../Libraries/STM32F10x_StdPeriph_Driver/src/stm32f10x_dac.c ****   *     @arg DAC_Channel_2: DAC Channel2 selected
 543:../Libraries/STM32F10x_StdPeriph_Driver/src/stm32f10x_dac.c ****   * @param  DAC_IT: specifies the DAC interrupt pending bit to clear.
 544:../Libraries/STM32F10x_StdPeriph_Driver/src/stm32f10x_dac.c ****   *   This parameter can be the following values:
 545:../Libraries/STM32F10x_StdPeriph_Driver/src/stm32f10x_dac.c ****   *     @arg DAC_IT_DMAUDR: DMA underrun interrupt mask                         
 546:../Libraries/STM32F10x_StdPeriph_Driver/src/stm32f10x_dac.c ****   * @retval None
 547:../Libraries/STM32F10x_StdPeriph_Driver/src/stm32f10x_dac.c ****   */
 548:../Libraries/STM32F10x_StdPeriph_Driver/src/stm32f10x_dac.c **** void DAC_ClearITPendingBit(uint32_t DAC_Channel, uint32_t DAC_IT)
 549:../Libraries/STM32F10x_StdPeriph_Driver/src/stm32f10x_dac.c **** {
 950              		.loc 1 549 0
 951              		.cfi_startproc
 952              		@ args = 0, pretend = 0, frame = 8
 953              		@ frame_needed = 1, uses_anonymous_args = 0
 954              		@ link register save eliminated.
 955 04ec 80B4     		push	{r7}
 956              	.LCFI47:
 957              		.cfi_def_cfa_offset 4
 958              		.cfi_offset 7, -4
 959 04ee 83B0     		sub	sp, sp, #12
 960              	.LCFI48:
 961              		.cfi_def_cfa_offset 16
 962 04f0 00AF     		add	r7, sp, #0
 963              	.LCFI49:
 964              		.cfi_def_cfa_register 7
 965 04f2 7860     		str	r0, [r7, #4]
 966 04f4 3960     		str	r1, [r7, #0]
 550:../Libraries/STM32F10x_StdPeriph_Driver/src/stm32f10x_dac.c ****   /* Check the parameters */
 551:../Libraries/STM32F10x_StdPeriph_Driver/src/stm32f10x_dac.c ****   assert_param(IS_DAC_CHANNEL(DAC_Channel));
 552:../Libraries/STM32F10x_StdPeriph_Driver/src/stm32f10x_dac.c ****   assert_param(IS_DAC_IT(DAC_IT)); 
 553:../Libraries/STM32F10x_StdPeriph_Driver/src/stm32f10x_dac.c **** 
 554:../Libraries/STM32F10x_StdPeriph_Driver/src/stm32f10x_dac.c ****   /* Clear the selected DAC interrupt pending bits */
 555:../Libraries/STM32F10x_StdPeriph_Driver/src/stm32f10x_dac.c ****   DAC->SR = (DAC_IT << DAC_Channel);
 967              		.loc 1 555 0
 968 04f6 4FF4E843 		mov	r3, #29696
 969 04fa C4F20003 		movt	r3, 16384
 970 04fe 7A68     		ldr	r2, [r7, #4]
 971 0500 3968     		ldr	r1, [r7, #0]
 972 0502 01FA02F2 		lsl	r2, r1, r2
 973 0506 5A63     		str	r2, [r3, #52]
 556:../Libraries/STM32F10x_StdPeriph_Driver/src/stm32f10x_dac.c **** }
 974              		.loc 1 556 0
 975 0508 07F10C07 		add	r7, r7, #12
 976 050c BD46     		mov	sp, r7
 977 050e 80BC     		pop	{r7}
 978 0510 7047     		bx	lr
 979              		.cfi_endproc
 980              	.LFE45:
 982              	.Letext0:
 983              		.file 2 "c:\\program files (x86)\\codesourcery\\sourcery_codebench_lite_for_arm_eabi\\bin\\../lib/
 984              		.file 3 "D:\\CORTEX\\F1_GlowingPainting\\Libraries\\CMSIS\\CM3\\DeviceSupport\\ST\\STM32F10x/stm32
 985              		.file 4 "D:\\CORTEX\\F1_GlowingPainting\\Libraries\\STM32F10x_StdPeriph_Driver\\inc/stm32f10x_dac.
 986              		.file 5 "D:\\CORTEX\\F1_GlowingPainting\\Libraries\\CMSIS\\CM3\\CoreSupport/core_cm3.h"