   1              		.syntax unified
   2              		.cpu cortex-m3
   3              		.fpu softvfp
   4              		.eabi_attribute 20, 1
   5              		.eabi_attribute 21, 1
   6              		.eabi_attribute 23, 3
   7              		.eabi_attribute 24, 1
   8              		.eabi_attribute 25, 1
   9              		.eabi_attribute 26, 1
  10              		.eabi_attribute 30, 6
  11              		.eabi_attribute 34, 1
  12              		.eabi_attribute 18, 4
  13              		.thumb
  14              		.file	"stm32f10x_fsmc.c"
  15              		.text
  16              	.Ltext0:
  17              		.cfi_sections	.debug_frame
  18              		.align	2
  19              		.global	FSMC_NORSRAMDeInit
  20              		.thumb
  21              		.thumb_func
  23              	FSMC_NORSRAMDeInit:
  24              	.LFB29:
  25              		.file 1 "../Libraries/STM32F10x_StdPeriph_Driver/src/stm32f10x_fsmc.c"
   1:../Libraries/STM32F10x_StdPeriph_Driver/src/stm32f10x_fsmc.c **** /**
   2:../Libraries/STM32F10x_StdPeriph_Driver/src/stm32f10x_fsmc.c ****   ******************************************************************************
   3:../Libraries/STM32F10x_StdPeriph_Driver/src/stm32f10x_fsmc.c ****   * @file    stm32f10x_fsmc.c
   4:../Libraries/STM32F10x_StdPeriph_Driver/src/stm32f10x_fsmc.c ****   * @author  MCD Application Team
   5:../Libraries/STM32F10x_StdPeriph_Driver/src/stm32f10x_fsmc.c ****   * @version V3.5.0
   6:../Libraries/STM32F10x_StdPeriph_Driver/src/stm32f10x_fsmc.c ****   * @date    11-March-2011
   7:../Libraries/STM32F10x_StdPeriph_Driver/src/stm32f10x_fsmc.c ****   * @brief   This file provides all the FSMC firmware functions.
   8:../Libraries/STM32F10x_StdPeriph_Driver/src/stm32f10x_fsmc.c ****   ******************************************************************************
   9:../Libraries/STM32F10x_StdPeriph_Driver/src/stm32f10x_fsmc.c ****   * @attention
  10:../Libraries/STM32F10x_StdPeriph_Driver/src/stm32f10x_fsmc.c ****   *
  11:../Libraries/STM32F10x_StdPeriph_Driver/src/stm32f10x_fsmc.c ****   * THE PRESENT FIRMWARE WHICH IS FOR GUIDANCE ONLY AIMS AT PROVIDING CUSTOMERS
  12:../Libraries/STM32F10x_StdPeriph_Driver/src/stm32f10x_fsmc.c ****   * WITH CODING INFORMATION REGARDING THEIR PRODUCTS IN ORDER FOR THEM TO SAVE
  13:../Libraries/STM32F10x_StdPeriph_Driver/src/stm32f10x_fsmc.c ****   * TIME. AS A RESULT, STMICROELECTRONICS SHALL NOT BE HELD LIABLE FOR ANY
  14:../Libraries/STM32F10x_StdPeriph_Driver/src/stm32f10x_fsmc.c ****   * DIRECT, INDIRECT OR CONSEQUENTIAL DAMAGES WITH RESPECT TO ANY CLAIMS ARISING
  15:../Libraries/STM32F10x_StdPeriph_Driver/src/stm32f10x_fsmc.c ****   * FROM THE CONTENT OF SUCH FIRMWARE AND/OR THE USE MADE BY CUSTOMERS OF THE
  16:../Libraries/STM32F10x_StdPeriph_Driver/src/stm32f10x_fsmc.c ****   * CODING INFORMATION CONTAINED HEREIN IN CONNECTION WITH THEIR PRODUCTS.
  17:../Libraries/STM32F10x_StdPeriph_Driver/src/stm32f10x_fsmc.c ****   *
  18:../Libraries/STM32F10x_StdPeriph_Driver/src/stm32f10x_fsmc.c ****   * <h2><center>&copy; COPYRIGHT 2011 STMicroelectronics</center></h2>
  19:../Libraries/STM32F10x_StdPeriph_Driver/src/stm32f10x_fsmc.c ****   ******************************************************************************
  20:../Libraries/STM32F10x_StdPeriph_Driver/src/stm32f10x_fsmc.c ****   */
  21:../Libraries/STM32F10x_StdPeriph_Driver/src/stm32f10x_fsmc.c **** 
  22:../Libraries/STM32F10x_StdPeriph_Driver/src/stm32f10x_fsmc.c **** /* Includes ------------------------------------------------------------------*/
  23:../Libraries/STM32F10x_StdPeriph_Driver/src/stm32f10x_fsmc.c **** #include "stm32f10x_fsmc.h"
  24:../Libraries/STM32F10x_StdPeriph_Driver/src/stm32f10x_fsmc.c **** #include "stm32f10x_rcc.h"
  25:../Libraries/STM32F10x_StdPeriph_Driver/src/stm32f10x_fsmc.c **** 
  26:../Libraries/STM32F10x_StdPeriph_Driver/src/stm32f10x_fsmc.c **** /** @addtogroup STM32F10x_StdPeriph_Driver
  27:../Libraries/STM32F10x_StdPeriph_Driver/src/stm32f10x_fsmc.c ****   * @{
  28:../Libraries/STM32F10x_StdPeriph_Driver/src/stm32f10x_fsmc.c ****   */
  29:../Libraries/STM32F10x_StdPeriph_Driver/src/stm32f10x_fsmc.c **** 
  30:../Libraries/STM32F10x_StdPeriph_Driver/src/stm32f10x_fsmc.c **** /** @defgroup FSMC 
  31:../Libraries/STM32F10x_StdPeriph_Driver/src/stm32f10x_fsmc.c ****   * @brief FSMC driver modules
  32:../Libraries/STM32F10x_StdPeriph_Driver/src/stm32f10x_fsmc.c ****   * @{
  33:../Libraries/STM32F10x_StdPeriph_Driver/src/stm32f10x_fsmc.c ****   */ 
  34:../Libraries/STM32F10x_StdPeriph_Driver/src/stm32f10x_fsmc.c **** 
  35:../Libraries/STM32F10x_StdPeriph_Driver/src/stm32f10x_fsmc.c **** /** @defgroup FSMC_Private_TypesDefinitions
  36:../Libraries/STM32F10x_StdPeriph_Driver/src/stm32f10x_fsmc.c ****   * @{
  37:../Libraries/STM32F10x_StdPeriph_Driver/src/stm32f10x_fsmc.c ****   */ 
  38:../Libraries/STM32F10x_StdPeriph_Driver/src/stm32f10x_fsmc.c **** /**
  39:../Libraries/STM32F10x_StdPeriph_Driver/src/stm32f10x_fsmc.c ****   * @}
  40:../Libraries/STM32F10x_StdPeriph_Driver/src/stm32f10x_fsmc.c ****   */
  41:../Libraries/STM32F10x_StdPeriph_Driver/src/stm32f10x_fsmc.c **** 
  42:../Libraries/STM32F10x_StdPeriph_Driver/src/stm32f10x_fsmc.c **** /** @defgroup FSMC_Private_Defines
  43:../Libraries/STM32F10x_StdPeriph_Driver/src/stm32f10x_fsmc.c ****   * @{
  44:../Libraries/STM32F10x_StdPeriph_Driver/src/stm32f10x_fsmc.c ****   */
  45:../Libraries/STM32F10x_StdPeriph_Driver/src/stm32f10x_fsmc.c **** 
  46:../Libraries/STM32F10x_StdPeriph_Driver/src/stm32f10x_fsmc.c **** /* --------------------- FSMC registers bit mask ---------------------------- */
  47:../Libraries/STM32F10x_StdPeriph_Driver/src/stm32f10x_fsmc.c **** 
  48:../Libraries/STM32F10x_StdPeriph_Driver/src/stm32f10x_fsmc.c **** /* FSMC BCRx Mask */
  49:../Libraries/STM32F10x_StdPeriph_Driver/src/stm32f10x_fsmc.c **** #define BCR_MBKEN_Set                       ((uint32_t)0x00000001)
  50:../Libraries/STM32F10x_StdPeriph_Driver/src/stm32f10x_fsmc.c **** #define BCR_MBKEN_Reset                     ((uint32_t)0x000FFFFE)
  51:../Libraries/STM32F10x_StdPeriph_Driver/src/stm32f10x_fsmc.c **** #define BCR_FACCEN_Set                      ((uint32_t)0x00000040)
  52:../Libraries/STM32F10x_StdPeriph_Driver/src/stm32f10x_fsmc.c **** 
  53:../Libraries/STM32F10x_StdPeriph_Driver/src/stm32f10x_fsmc.c **** /* FSMC PCRx Mask */
  54:../Libraries/STM32F10x_StdPeriph_Driver/src/stm32f10x_fsmc.c **** #define PCR_PBKEN_Set                       ((uint32_t)0x00000004)
  55:../Libraries/STM32F10x_StdPeriph_Driver/src/stm32f10x_fsmc.c **** #define PCR_PBKEN_Reset                     ((uint32_t)0x000FFFFB)
  56:../Libraries/STM32F10x_StdPeriph_Driver/src/stm32f10x_fsmc.c **** #define PCR_ECCEN_Set                       ((uint32_t)0x00000040)
  57:../Libraries/STM32F10x_StdPeriph_Driver/src/stm32f10x_fsmc.c **** #define PCR_ECCEN_Reset                     ((uint32_t)0x000FFFBF)
  58:../Libraries/STM32F10x_StdPeriph_Driver/src/stm32f10x_fsmc.c **** #define PCR_MemoryType_NAND                 ((uint32_t)0x00000008)
  59:../Libraries/STM32F10x_StdPeriph_Driver/src/stm32f10x_fsmc.c **** /**
  60:../Libraries/STM32F10x_StdPeriph_Driver/src/stm32f10x_fsmc.c ****   * @}
  61:../Libraries/STM32F10x_StdPeriph_Driver/src/stm32f10x_fsmc.c ****   */
  62:../Libraries/STM32F10x_StdPeriph_Driver/src/stm32f10x_fsmc.c **** 
  63:../Libraries/STM32F10x_StdPeriph_Driver/src/stm32f10x_fsmc.c **** /** @defgroup FSMC_Private_Macros
  64:../Libraries/STM32F10x_StdPeriph_Driver/src/stm32f10x_fsmc.c ****   * @{
  65:../Libraries/STM32F10x_StdPeriph_Driver/src/stm32f10x_fsmc.c ****   */
  66:../Libraries/STM32F10x_StdPeriph_Driver/src/stm32f10x_fsmc.c **** 
  67:../Libraries/STM32F10x_StdPeriph_Driver/src/stm32f10x_fsmc.c **** /**
  68:../Libraries/STM32F10x_StdPeriph_Driver/src/stm32f10x_fsmc.c ****   * @}
  69:../Libraries/STM32F10x_StdPeriph_Driver/src/stm32f10x_fsmc.c ****   */
  70:../Libraries/STM32F10x_StdPeriph_Driver/src/stm32f10x_fsmc.c **** 
  71:../Libraries/STM32F10x_StdPeriph_Driver/src/stm32f10x_fsmc.c **** /** @defgroup FSMC_Private_Variables
  72:../Libraries/STM32F10x_StdPeriph_Driver/src/stm32f10x_fsmc.c ****   * @{
  73:../Libraries/STM32F10x_StdPeriph_Driver/src/stm32f10x_fsmc.c ****   */
  74:../Libraries/STM32F10x_StdPeriph_Driver/src/stm32f10x_fsmc.c **** 
  75:../Libraries/STM32F10x_StdPeriph_Driver/src/stm32f10x_fsmc.c **** /**
  76:../Libraries/STM32F10x_StdPeriph_Driver/src/stm32f10x_fsmc.c ****   * @}
  77:../Libraries/STM32F10x_StdPeriph_Driver/src/stm32f10x_fsmc.c ****   */
  78:../Libraries/STM32F10x_StdPeriph_Driver/src/stm32f10x_fsmc.c **** 
  79:../Libraries/STM32F10x_StdPeriph_Driver/src/stm32f10x_fsmc.c **** /** @defgroup FSMC_Private_FunctionPrototypes
  80:../Libraries/STM32F10x_StdPeriph_Driver/src/stm32f10x_fsmc.c ****   * @{
  81:../Libraries/STM32F10x_StdPeriph_Driver/src/stm32f10x_fsmc.c ****   */
  82:../Libraries/STM32F10x_StdPeriph_Driver/src/stm32f10x_fsmc.c **** 
  83:../Libraries/STM32F10x_StdPeriph_Driver/src/stm32f10x_fsmc.c **** /**
  84:../Libraries/STM32F10x_StdPeriph_Driver/src/stm32f10x_fsmc.c ****   * @}
  85:../Libraries/STM32F10x_StdPeriph_Driver/src/stm32f10x_fsmc.c ****   */
  86:../Libraries/STM32F10x_StdPeriph_Driver/src/stm32f10x_fsmc.c **** 
  87:../Libraries/STM32F10x_StdPeriph_Driver/src/stm32f10x_fsmc.c **** /** @defgroup FSMC_Private_Functions
  88:../Libraries/STM32F10x_StdPeriph_Driver/src/stm32f10x_fsmc.c ****   * @{
  89:../Libraries/STM32F10x_StdPeriph_Driver/src/stm32f10x_fsmc.c ****   */
  90:../Libraries/STM32F10x_StdPeriph_Driver/src/stm32f10x_fsmc.c **** 
  91:../Libraries/STM32F10x_StdPeriph_Driver/src/stm32f10x_fsmc.c **** /**
  92:../Libraries/STM32F10x_StdPeriph_Driver/src/stm32f10x_fsmc.c ****   * @brief  Deinitializes the FSMC NOR/SRAM Banks registers to their default 
  93:../Libraries/STM32F10x_StdPeriph_Driver/src/stm32f10x_fsmc.c ****   *         reset values.
  94:../Libraries/STM32F10x_StdPeriph_Driver/src/stm32f10x_fsmc.c ****   * @param  FSMC_Bank: specifies the FSMC Bank to be used
  95:../Libraries/STM32F10x_StdPeriph_Driver/src/stm32f10x_fsmc.c ****   *   This parameter can be one of the following values:
  96:../Libraries/STM32F10x_StdPeriph_Driver/src/stm32f10x_fsmc.c ****   *     @arg FSMC_Bank1_NORSRAM1: FSMC Bank1 NOR/SRAM1  
  97:../Libraries/STM32F10x_StdPeriph_Driver/src/stm32f10x_fsmc.c ****   *     @arg FSMC_Bank1_NORSRAM2: FSMC Bank1 NOR/SRAM2 
  98:../Libraries/STM32F10x_StdPeriph_Driver/src/stm32f10x_fsmc.c ****   *     @arg FSMC_Bank1_NORSRAM3: FSMC Bank1 NOR/SRAM3 
  99:../Libraries/STM32F10x_StdPeriph_Driver/src/stm32f10x_fsmc.c ****   *     @arg FSMC_Bank1_NORSRAM4: FSMC Bank1 NOR/SRAM4 
 100:../Libraries/STM32F10x_StdPeriph_Driver/src/stm32f10x_fsmc.c ****   * @retval None
 101:../Libraries/STM32F10x_StdPeriph_Driver/src/stm32f10x_fsmc.c ****   */
 102:../Libraries/STM32F10x_StdPeriph_Driver/src/stm32f10x_fsmc.c **** void FSMC_NORSRAMDeInit(uint32_t FSMC_Bank)
 103:../Libraries/STM32F10x_StdPeriph_Driver/src/stm32f10x_fsmc.c **** {
  26              		.loc 1 103 0
  27              		.cfi_startproc
  28              		@ args = 0, pretend = 0, frame = 8
  29              		@ frame_needed = 1, uses_anonymous_args = 0
  30              		@ link register save eliminated.
  31 0000 80B4     		push	{r7}
  32              	.LCFI0:
  33              		.cfi_def_cfa_offset 4
  34              		.cfi_offset 7, -4
  35 0002 83B0     		sub	sp, sp, #12
  36              	.LCFI1:
  37              		.cfi_def_cfa_offset 16
  38 0004 00AF     		add	r7, sp, #0
  39              	.LCFI2:
  40              		.cfi_def_cfa_register 7
  41 0006 7860     		str	r0, [r7, #4]
 104:../Libraries/STM32F10x_StdPeriph_Driver/src/stm32f10x_fsmc.c ****   /* Check the parameter */
 105:../Libraries/STM32F10x_StdPeriph_Driver/src/stm32f10x_fsmc.c ****   assert_param(IS_FSMC_NORSRAM_BANK(FSMC_Bank));
 106:../Libraries/STM32F10x_StdPeriph_Driver/src/stm32f10x_fsmc.c ****   
 107:../Libraries/STM32F10x_StdPeriph_Driver/src/stm32f10x_fsmc.c ****   /* FSMC_Bank1_NORSRAM1 */
 108:../Libraries/STM32F10x_StdPeriph_Driver/src/stm32f10x_fsmc.c ****   if(FSMC_Bank == FSMC_Bank1_NORSRAM1)
  42              		.loc 1 108 0
  43 0008 7B68     		ldr	r3, [r7, #4]
  44 000a 002B     		cmp	r3, #0
  45 000c 07D1     		bne	.L2
 109:../Libraries/STM32F10x_StdPeriph_Driver/src/stm32f10x_fsmc.c ****   {
 110:../Libraries/STM32F10x_StdPeriph_Driver/src/stm32f10x_fsmc.c ****     FSMC_Bank1->BTCR[FSMC_Bank] = 0x000030DB;    
  46              		.loc 1 110 0
  47 000e 4FF02043 		mov	r3, #-1610612736
  48 0012 7A68     		ldr	r2, [r7, #4]
  49 0014 43F2DB01 		movw	r1, #12507
  50 0018 43F82210 		str	r1, [r3, r2, lsl #2]
  51 001c 06E0     		b	.L3
  52              	.L2:
 111:../Libraries/STM32F10x_StdPeriph_Driver/src/stm32f10x_fsmc.c ****   }
 112:../Libraries/STM32F10x_StdPeriph_Driver/src/stm32f10x_fsmc.c ****   /* FSMC_Bank1_NORSRAM2,  FSMC_Bank1_NORSRAM3 or FSMC_Bank1_NORSRAM4 */
 113:../Libraries/STM32F10x_StdPeriph_Driver/src/stm32f10x_fsmc.c ****   else
 114:../Libraries/STM32F10x_StdPeriph_Driver/src/stm32f10x_fsmc.c ****   {   
 115:../Libraries/STM32F10x_StdPeriph_Driver/src/stm32f10x_fsmc.c ****     FSMC_Bank1->BTCR[FSMC_Bank] = 0x000030D2; 
  53              		.loc 1 115 0
  54 001e 4FF02043 		mov	r3, #-1610612736
  55 0022 7A68     		ldr	r2, [r7, #4]
  56 0024 43F2D201 		movw	r1, #12498
  57 0028 43F82210 		str	r1, [r3, r2, lsl #2]
  58              	.L3:
 116:../Libraries/STM32F10x_StdPeriph_Driver/src/stm32f10x_fsmc.c ****   }
 117:../Libraries/STM32F10x_StdPeriph_Driver/src/stm32f10x_fsmc.c ****   FSMC_Bank1->BTCR[FSMC_Bank + 1] = 0x0FFFFFFF;
  59              		.loc 1 117 0
  60 002c 4FF02040 		mov	r0, #-1610612736
  61 0030 7B68     		ldr	r3, [r7, #4]
  62 0032 03F10102 		add	r2, r3, #1
  63 0036 6FF07041 		mvn	r1, #-268435456
  64 003a 0346     		mov	r3, r0
  65 003c 43F82210 		str	r1, [r3, r2, lsl #2]
 118:../Libraries/STM32F10x_StdPeriph_Driver/src/stm32f10x_fsmc.c ****   FSMC_Bank1E->BWTR[FSMC_Bank] = 0x0FFFFFFF;  
  66              		.loc 1 118 0
  67 0040 4FF48273 		mov	r3, #260
  68 0044 CAF20003 		movt	r3, 40960
  69 0048 7A68     		ldr	r2, [r7, #4]
  70 004a 6FF07041 		mvn	r1, #-268435456
  71 004e 43F82210 		str	r1, [r3, r2, lsl #2]
 119:../Libraries/STM32F10x_StdPeriph_Driver/src/stm32f10x_fsmc.c **** }
  72              		.loc 1 119 0
  73 0052 07F10C07 		add	r7, r7, #12
  74 0056 BD46     		mov	sp, r7
  75 0058 80BC     		pop	{r7}
  76 005a 7047     		bx	lr
  77              		.cfi_endproc
  78              	.LFE29:
  80              		.align	2
  81              		.global	FSMC_NANDDeInit
  82              		.thumb
  83              		.thumb_func
  85              	FSMC_NANDDeInit:
  86              	.LFB30:
 120:../Libraries/STM32F10x_StdPeriph_Driver/src/stm32f10x_fsmc.c **** 
 121:../Libraries/STM32F10x_StdPeriph_Driver/src/stm32f10x_fsmc.c **** /**
 122:../Libraries/STM32F10x_StdPeriph_Driver/src/stm32f10x_fsmc.c ****   * @brief  Deinitializes the FSMC NAND Banks registers to their default reset values.
 123:../Libraries/STM32F10x_StdPeriph_Driver/src/stm32f10x_fsmc.c ****   * @param  FSMC_Bank: specifies the FSMC Bank to be used
 124:../Libraries/STM32F10x_StdPeriph_Driver/src/stm32f10x_fsmc.c ****   *   This parameter can be one of the following values:
 125:../Libraries/STM32F10x_StdPeriph_Driver/src/stm32f10x_fsmc.c ****   *     @arg FSMC_Bank2_NAND: FSMC Bank2 NAND 
 126:../Libraries/STM32F10x_StdPeriph_Driver/src/stm32f10x_fsmc.c ****   *     @arg FSMC_Bank3_NAND: FSMC Bank3 NAND 
 127:../Libraries/STM32F10x_StdPeriph_Driver/src/stm32f10x_fsmc.c ****   * @retval None
 128:../Libraries/STM32F10x_StdPeriph_Driver/src/stm32f10x_fsmc.c ****   */
 129:../Libraries/STM32F10x_StdPeriph_Driver/src/stm32f10x_fsmc.c **** void FSMC_NANDDeInit(uint32_t FSMC_Bank)
 130:../Libraries/STM32F10x_StdPeriph_Driver/src/stm32f10x_fsmc.c **** {
  87              		.loc 1 130 0
  88              		.cfi_startproc
  89              		@ args = 0, pretend = 0, frame = 8
  90              		@ frame_needed = 1, uses_anonymous_args = 0
  91              		@ link register save eliminated.
  92 005c 80B4     		push	{r7}
  93              	.LCFI3:
  94              		.cfi_def_cfa_offset 4
  95              		.cfi_offset 7, -4
  96 005e 83B0     		sub	sp, sp, #12
  97              	.LCFI4:
  98              		.cfi_def_cfa_offset 16
  99 0060 00AF     		add	r7, sp, #0
 100              	.LCFI5:
 101              		.cfi_def_cfa_register 7
 102 0062 7860     		str	r0, [r7, #4]
 131:../Libraries/STM32F10x_StdPeriph_Driver/src/stm32f10x_fsmc.c ****   /* Check the parameter */
 132:../Libraries/STM32F10x_StdPeriph_Driver/src/stm32f10x_fsmc.c ****   assert_param(IS_FSMC_NAND_BANK(FSMC_Bank));
 133:../Libraries/STM32F10x_StdPeriph_Driver/src/stm32f10x_fsmc.c ****   
 134:../Libraries/STM32F10x_StdPeriph_Driver/src/stm32f10x_fsmc.c ****   if(FSMC_Bank == FSMC_Bank2_NAND)
 103              		.loc 1 134 0
 104 0064 7B68     		ldr	r3, [r7, #4]
 105 0066 102B     		cmp	r3, #16
 106 0068 1CD1     		bne	.L5
 135:../Libraries/STM32F10x_StdPeriph_Driver/src/stm32f10x_fsmc.c ****   {
 136:../Libraries/STM32F10x_StdPeriph_Driver/src/stm32f10x_fsmc.c ****     /* Set the FSMC_Bank2 registers to their reset values */
 137:../Libraries/STM32F10x_StdPeriph_Driver/src/stm32f10x_fsmc.c ****     FSMC_Bank2->PCR2 = 0x00000018;
 107              		.loc 1 137 0
 108 006a 4FF06003 		mov	r3, #96
 109 006e CAF20003 		movt	r3, 40960
 110 0072 4FF01802 		mov	r2, #24
 111 0076 1A60     		str	r2, [r3, #0]
 138:../Libraries/STM32F10x_StdPeriph_Driver/src/stm32f10x_fsmc.c ****     FSMC_Bank2->SR2 = 0x00000040;
 112              		.loc 1 138 0
 113 0078 4FF06003 		mov	r3, #96
 114 007c CAF20003 		movt	r3, 40960
 115 0080 4FF04002 		mov	r2, #64
 116 0084 5A60     		str	r2, [r3, #4]
 139:../Libraries/STM32F10x_StdPeriph_Driver/src/stm32f10x_fsmc.c ****     FSMC_Bank2->PMEM2 = 0xFCFCFCFC;
 117              		.loc 1 139 0
 118 0086 4FF06003 		mov	r3, #96
 119 008a CAF20003 		movt	r3, 40960
 120 008e 4FF0FC32 		mov	r2, #-50529028
 121 0092 9A60     		str	r2, [r3, #8]
 140:../Libraries/STM32F10x_StdPeriph_Driver/src/stm32f10x_fsmc.c ****     FSMC_Bank2->PATT2 = 0xFCFCFCFC;  
 122              		.loc 1 140 0
 123 0094 4FF06003 		mov	r3, #96
 124 0098 CAF20003 		movt	r3, 40960
 125 009c 4FF0FC32 		mov	r2, #-50529028
 126 00a0 DA60     		str	r2, [r3, #12]
 127 00a2 1BE0     		b	.L4
 128              	.L5:
 141:../Libraries/STM32F10x_StdPeriph_Driver/src/stm32f10x_fsmc.c ****   }
 142:../Libraries/STM32F10x_StdPeriph_Driver/src/stm32f10x_fsmc.c ****   /* FSMC_Bank3_NAND */  
 143:../Libraries/STM32F10x_StdPeriph_Driver/src/stm32f10x_fsmc.c ****   else
 144:../Libraries/STM32F10x_StdPeriph_Driver/src/stm32f10x_fsmc.c ****   {
 145:../Libraries/STM32F10x_StdPeriph_Driver/src/stm32f10x_fsmc.c ****     /* Set the FSMC_Bank3 registers to their reset values */
 146:../Libraries/STM32F10x_StdPeriph_Driver/src/stm32f10x_fsmc.c ****     FSMC_Bank3->PCR3 = 0x00000018;
 129              		.loc 1 146 0
 130 00a4 4FF08003 		mov	r3, #128
 131 00a8 CAF20003 		movt	r3, 40960
 132 00ac 4FF01802 		mov	r2, #24
 133 00b0 1A60     		str	r2, [r3, #0]
 147:../Libraries/STM32F10x_StdPeriph_Driver/src/stm32f10x_fsmc.c ****     FSMC_Bank3->SR3 = 0x00000040;
 134              		.loc 1 147 0
 135 00b2 4FF08003 		mov	r3, #128
 136 00b6 CAF20003 		movt	r3, 40960
 137 00ba 4FF04002 		mov	r2, #64
 138 00be 5A60     		str	r2, [r3, #4]
 148:../Libraries/STM32F10x_StdPeriph_Driver/src/stm32f10x_fsmc.c ****     FSMC_Bank3->PMEM3 = 0xFCFCFCFC;
 139              		.loc 1 148 0
 140 00c0 4FF08003 		mov	r3, #128
 141 00c4 CAF20003 		movt	r3, 40960
 142 00c8 4FF0FC32 		mov	r2, #-50529028
 143 00cc 9A60     		str	r2, [r3, #8]
 149:../Libraries/STM32F10x_StdPeriph_Driver/src/stm32f10x_fsmc.c ****     FSMC_Bank3->PATT3 = 0xFCFCFCFC; 
 144              		.loc 1 149 0
 145 00ce 4FF08003 		mov	r3, #128
 146 00d2 CAF20003 		movt	r3, 40960
 147 00d6 4FF0FC32 		mov	r2, #-50529028
 148 00da DA60     		str	r2, [r3, #12]
 149              	.L4:
 150:../Libraries/STM32F10x_StdPeriph_Driver/src/stm32f10x_fsmc.c ****   }  
 151:../Libraries/STM32F10x_StdPeriph_Driver/src/stm32f10x_fsmc.c **** }
 150              		.loc 1 151 0
 151 00dc 07F10C07 		add	r7, r7, #12
 152 00e0 BD46     		mov	sp, r7
 153 00e2 80BC     		pop	{r7}
 154 00e4 7047     		bx	lr
 155              		.cfi_endproc
 156              	.LFE30:
 158 00e6 00BF     		.align	2
 159              		.global	FSMC_PCCARDDeInit
 160              		.thumb
 161              		.thumb_func
 163              	FSMC_PCCARDDeInit:
 164              	.LFB31:
 152:../Libraries/STM32F10x_StdPeriph_Driver/src/stm32f10x_fsmc.c **** 
 153:../Libraries/STM32F10x_StdPeriph_Driver/src/stm32f10x_fsmc.c **** /**
 154:../Libraries/STM32F10x_StdPeriph_Driver/src/stm32f10x_fsmc.c ****   * @brief  Deinitializes the FSMC PCCARD Bank registers to their default reset values.
 155:../Libraries/STM32F10x_StdPeriph_Driver/src/stm32f10x_fsmc.c ****   * @param  None                       
 156:../Libraries/STM32F10x_StdPeriph_Driver/src/stm32f10x_fsmc.c ****   * @retval None
 157:../Libraries/STM32F10x_StdPeriph_Driver/src/stm32f10x_fsmc.c ****   */
 158:../Libraries/STM32F10x_StdPeriph_Driver/src/stm32f10x_fsmc.c **** void FSMC_PCCARDDeInit(void)
 159:../Libraries/STM32F10x_StdPeriph_Driver/src/stm32f10x_fsmc.c **** {
 165              		.loc 1 159 0
 166              		.cfi_startproc
 167              		@ args = 0, pretend = 0, frame = 0
 168              		@ frame_needed = 1, uses_anonymous_args = 0
 169              		@ link register save eliminated.
 170 00e8 80B4     		push	{r7}
 171              	.LCFI6:
 172              		.cfi_def_cfa_offset 4
 173              		.cfi_offset 7, -4
 174 00ea 00AF     		add	r7, sp, #0
 175              	.LCFI7:
 176              		.cfi_def_cfa_register 7
 160:../Libraries/STM32F10x_StdPeriph_Driver/src/stm32f10x_fsmc.c ****   /* Set the FSMC_Bank4 registers to their reset values */
 161:../Libraries/STM32F10x_StdPeriph_Driver/src/stm32f10x_fsmc.c ****   FSMC_Bank4->PCR4 = 0x00000018; 
 177              		.loc 1 161 0
 178 00ec 4FF0A003 		mov	r3, #160
 179 00f0 CAF20003 		movt	r3, 40960
 180 00f4 4FF01802 		mov	r2, #24
 181 00f8 1A60     		str	r2, [r3, #0]
 162:../Libraries/STM32F10x_StdPeriph_Driver/src/stm32f10x_fsmc.c ****   FSMC_Bank4->SR4 = 0x00000000;	
 182              		.loc 1 162 0
 183 00fa 4FF0A003 		mov	r3, #160
 184 00fe CAF20003 		movt	r3, 40960
 185 0102 4FF00002 		mov	r2, #0
 186 0106 5A60     		str	r2, [r3, #4]
 163:../Libraries/STM32F10x_StdPeriph_Driver/src/stm32f10x_fsmc.c ****   FSMC_Bank4->PMEM4 = 0xFCFCFCFC;
 187              		.loc 1 163 0
 188 0108 4FF0A003 		mov	r3, #160
 189 010c CAF20003 		movt	r3, 40960
 190 0110 4FF0FC32 		mov	r2, #-50529028
 191 0114 9A60     		str	r2, [r3, #8]
 164:../Libraries/STM32F10x_StdPeriph_Driver/src/stm32f10x_fsmc.c ****   FSMC_Bank4->PATT4 = 0xFCFCFCFC;
 192              		.loc 1 164 0
 193 0116 4FF0A003 		mov	r3, #160
 194 011a CAF20003 		movt	r3, 40960
 195 011e 4FF0FC32 		mov	r2, #-50529028
 196 0122 DA60     		str	r2, [r3, #12]
 165:../Libraries/STM32F10x_StdPeriph_Driver/src/stm32f10x_fsmc.c ****   FSMC_Bank4->PIO4 = 0xFCFCFCFC;
 197              		.loc 1 165 0
 198 0124 4FF0A003 		mov	r3, #160
 199 0128 CAF20003 		movt	r3, 40960
 200 012c 4FF0FC32 		mov	r2, #-50529028
 201 0130 1A61     		str	r2, [r3, #16]
 166:../Libraries/STM32F10x_StdPeriph_Driver/src/stm32f10x_fsmc.c **** }
 202              		.loc 1 166 0
 203 0132 BD46     		mov	sp, r7
 204 0134 80BC     		pop	{r7}
 205 0136 7047     		bx	lr
 206              		.cfi_endproc
 207              	.LFE31:
 209              		.align	2
 210              		.global	FSMC_NORSRAMInit
 211              		.thumb
 212              		.thumb_func
 214              	FSMC_NORSRAMInit:
 215              	.LFB32:
 167:../Libraries/STM32F10x_StdPeriph_Driver/src/stm32f10x_fsmc.c **** 
 168:../Libraries/STM32F10x_StdPeriph_Driver/src/stm32f10x_fsmc.c **** /**
 169:../Libraries/STM32F10x_StdPeriph_Driver/src/stm32f10x_fsmc.c ****   * @brief  Initializes the FSMC NOR/SRAM Banks according to the specified
 170:../Libraries/STM32F10x_StdPeriph_Driver/src/stm32f10x_fsmc.c ****   *         parameters in the FSMC_NORSRAMInitStruct.
 171:../Libraries/STM32F10x_StdPeriph_Driver/src/stm32f10x_fsmc.c ****   * @param  FSMC_NORSRAMInitStruct : pointer to a FSMC_NORSRAMInitTypeDef
 172:../Libraries/STM32F10x_StdPeriph_Driver/src/stm32f10x_fsmc.c ****   *         structure that contains the configuration information for 
 173:../Libraries/STM32F10x_StdPeriph_Driver/src/stm32f10x_fsmc.c ****   *        the FSMC NOR/SRAM specified Banks.                       
 174:../Libraries/STM32F10x_StdPeriph_Driver/src/stm32f10x_fsmc.c ****   * @retval None
 175:../Libraries/STM32F10x_StdPeriph_Driver/src/stm32f10x_fsmc.c ****   */
 176:../Libraries/STM32F10x_StdPeriph_Driver/src/stm32f10x_fsmc.c **** void FSMC_NORSRAMInit(FSMC_NORSRAMInitTypeDef* FSMC_NORSRAMInitStruct)
 177:../Libraries/STM32F10x_StdPeriph_Driver/src/stm32f10x_fsmc.c **** { 
 216              		.loc 1 177 0
 217              		.cfi_startproc
 218              		@ args = 0, pretend = 0, frame = 8
 219              		@ frame_needed = 1, uses_anonymous_args = 0
 220              		@ link register save eliminated.
 221 0138 90B4     		push	{r4, r7}
 222              	.LCFI8:
 223              		.cfi_def_cfa_offset 8
 224              		.cfi_offset 7, -4
 225              		.cfi_offset 4, -8
 226 013a 82B0     		sub	sp, sp, #8
 227              	.LCFI9:
 228              		.cfi_def_cfa_offset 16
 229 013c 00AF     		add	r7, sp, #0
 230              	.LCFI10:
 231              		.cfi_def_cfa_register 7
 232 013e 7860     		str	r0, [r7, #4]
 178:../Libraries/STM32F10x_StdPeriph_Driver/src/stm32f10x_fsmc.c ****   /* Check the parameters */
 179:../Libraries/STM32F10x_StdPeriph_Driver/src/stm32f10x_fsmc.c ****   assert_param(IS_FSMC_NORSRAM_BANK(FSMC_NORSRAMInitStruct->FSMC_Bank));
 180:../Libraries/STM32F10x_StdPeriph_Driver/src/stm32f10x_fsmc.c ****   assert_param(IS_FSMC_MUX(FSMC_NORSRAMInitStruct->FSMC_DataAddressMux));
 181:../Libraries/STM32F10x_StdPeriph_Driver/src/stm32f10x_fsmc.c ****   assert_param(IS_FSMC_MEMORY(FSMC_NORSRAMInitStruct->FSMC_MemoryType));
 182:../Libraries/STM32F10x_StdPeriph_Driver/src/stm32f10x_fsmc.c ****   assert_param(IS_FSMC_MEMORY_WIDTH(FSMC_NORSRAMInitStruct->FSMC_MemoryDataWidth));
 183:../Libraries/STM32F10x_StdPeriph_Driver/src/stm32f10x_fsmc.c ****   assert_param(IS_FSMC_BURSTMODE(FSMC_NORSRAMInitStruct->FSMC_BurstAccessMode));
 184:../Libraries/STM32F10x_StdPeriph_Driver/src/stm32f10x_fsmc.c ****   assert_param(IS_FSMC_ASYNWAIT(FSMC_NORSRAMInitStruct->FSMC_AsynchronousWait));
 185:../Libraries/STM32F10x_StdPeriph_Driver/src/stm32f10x_fsmc.c ****   assert_param(IS_FSMC_WAIT_POLARITY(FSMC_NORSRAMInitStruct->FSMC_WaitSignalPolarity));
 186:../Libraries/STM32F10x_StdPeriph_Driver/src/stm32f10x_fsmc.c ****   assert_param(IS_FSMC_WRAP_MODE(FSMC_NORSRAMInitStruct->FSMC_WrapMode));
 187:../Libraries/STM32F10x_StdPeriph_Driver/src/stm32f10x_fsmc.c ****   assert_param(IS_FSMC_WAIT_SIGNAL_ACTIVE(FSMC_NORSRAMInitStruct->FSMC_WaitSignalActive));
 188:../Libraries/STM32F10x_StdPeriph_Driver/src/stm32f10x_fsmc.c ****   assert_param(IS_FSMC_WRITE_OPERATION(FSMC_NORSRAMInitStruct->FSMC_WriteOperation));
 189:../Libraries/STM32F10x_StdPeriph_Driver/src/stm32f10x_fsmc.c ****   assert_param(IS_FSMC_WAITE_SIGNAL(FSMC_NORSRAMInitStruct->FSMC_WaitSignal));
 190:../Libraries/STM32F10x_StdPeriph_Driver/src/stm32f10x_fsmc.c ****   assert_param(IS_FSMC_EXTENDED_MODE(FSMC_NORSRAMInitStruct->FSMC_ExtendedMode));
 191:../Libraries/STM32F10x_StdPeriph_Driver/src/stm32f10x_fsmc.c ****   assert_param(IS_FSMC_WRITE_BURST(FSMC_NORSRAMInitStruct->FSMC_WriteBurst));  
 192:../Libraries/STM32F10x_StdPeriph_Driver/src/stm32f10x_fsmc.c ****   assert_param(IS_FSMC_ADDRESS_SETUP_TIME(FSMC_NORSRAMInitStruct->FSMC_ReadWriteTimingStruct->FSMC_
 193:../Libraries/STM32F10x_StdPeriph_Driver/src/stm32f10x_fsmc.c ****   assert_param(IS_FSMC_ADDRESS_HOLD_TIME(FSMC_NORSRAMInitStruct->FSMC_ReadWriteTimingStruct->FSMC_A
 194:../Libraries/STM32F10x_StdPeriph_Driver/src/stm32f10x_fsmc.c ****   assert_param(IS_FSMC_DATASETUP_TIME(FSMC_NORSRAMInitStruct->FSMC_ReadWriteTimingStruct->FSMC_Data
 195:../Libraries/STM32F10x_StdPeriph_Driver/src/stm32f10x_fsmc.c ****   assert_param(IS_FSMC_TURNAROUND_TIME(FSMC_NORSRAMInitStruct->FSMC_ReadWriteTimingStruct->FSMC_Bus
 196:../Libraries/STM32F10x_StdPeriph_Driver/src/stm32f10x_fsmc.c ****   assert_param(IS_FSMC_CLK_DIV(FSMC_NORSRAMInitStruct->FSMC_ReadWriteTimingStruct->FSMC_CLKDivision
 197:../Libraries/STM32F10x_StdPeriph_Driver/src/stm32f10x_fsmc.c ****   assert_param(IS_FSMC_DATA_LATENCY(FSMC_NORSRAMInitStruct->FSMC_ReadWriteTimingStruct->FSMC_DataLa
 198:../Libraries/STM32F10x_StdPeriph_Driver/src/stm32f10x_fsmc.c ****   assert_param(IS_FSMC_ACCESS_MODE(FSMC_NORSRAMInitStruct->FSMC_ReadWriteTimingStruct->FSMC_AccessM
 199:../Libraries/STM32F10x_StdPeriph_Driver/src/stm32f10x_fsmc.c ****   
 200:../Libraries/STM32F10x_StdPeriph_Driver/src/stm32f10x_fsmc.c ****   /* Bank1 NOR/SRAM control register configuration */ 
 201:../Libraries/STM32F10x_StdPeriph_Driver/src/stm32f10x_fsmc.c ****   FSMC_Bank1->BTCR[FSMC_NORSRAMInitStruct->FSMC_Bank] = 
 233              		.loc 1 201 0
 234 0140 4FF02040 		mov	r0, #-1610612736
 235 0144 7B68     		ldr	r3, [r7, #4]
 236 0146 1A68     		ldr	r2, [r3, #0]
 202:../Libraries/STM32F10x_StdPeriph_Driver/src/stm32f10x_fsmc.c ****             (uint32_t)FSMC_NORSRAMInitStruct->FSMC_DataAddressMux |
 237              		.loc 1 202 0
 238 0148 7B68     		ldr	r3, [r7, #4]
 239 014a 5968     		ldr	r1, [r3, #4]
 203:../Libraries/STM32F10x_StdPeriph_Driver/src/stm32f10x_fsmc.c ****             FSMC_NORSRAMInitStruct->FSMC_MemoryType |
 240              		.loc 1 203 0
 241 014c 7B68     		ldr	r3, [r7, #4]
 242 014e 9B68     		ldr	r3, [r3, #8]
 202:../Libraries/STM32F10x_StdPeriph_Driver/src/stm32f10x_fsmc.c ****             (uint32_t)FSMC_NORSRAMInitStruct->FSMC_DataAddressMux |
 243              		.loc 1 202 0
 244 0150 1943     		orrs	r1, r1, r3
 204:../Libraries/STM32F10x_StdPeriph_Driver/src/stm32f10x_fsmc.c ****             FSMC_NORSRAMInitStruct->FSMC_MemoryDataWidth |
 245              		.loc 1 204 0
 246 0152 7B68     		ldr	r3, [r7, #4]
 247 0154 DB68     		ldr	r3, [r3, #12]
 203:../Libraries/STM32F10x_StdPeriph_Driver/src/stm32f10x_fsmc.c ****             FSMC_NORSRAMInitStruct->FSMC_MemoryType |
 248              		.loc 1 203 0
 249 0156 1943     		orrs	r1, r1, r3
 205:../Libraries/STM32F10x_StdPeriph_Driver/src/stm32f10x_fsmc.c ****             FSMC_NORSRAMInitStruct->FSMC_BurstAccessMode |
 250              		.loc 1 205 0
 251 0158 7B68     		ldr	r3, [r7, #4]
 252 015a 1B69     		ldr	r3, [r3, #16]
 204:../Libraries/STM32F10x_StdPeriph_Driver/src/stm32f10x_fsmc.c ****             FSMC_NORSRAMInitStruct->FSMC_MemoryDataWidth |
 253              		.loc 1 204 0
 254 015c 1943     		orrs	r1, r1, r3
 206:../Libraries/STM32F10x_StdPeriph_Driver/src/stm32f10x_fsmc.c ****             FSMC_NORSRAMInitStruct->FSMC_AsynchronousWait |
 255              		.loc 1 206 0
 256 015e 7B68     		ldr	r3, [r7, #4]
 257 0160 5B69     		ldr	r3, [r3, #20]
 205:../Libraries/STM32F10x_StdPeriph_Driver/src/stm32f10x_fsmc.c ****             FSMC_NORSRAMInitStruct->FSMC_BurstAccessMode |
 258              		.loc 1 205 0
 259 0162 1943     		orrs	r1, r1, r3
 207:../Libraries/STM32F10x_StdPeriph_Driver/src/stm32f10x_fsmc.c ****             FSMC_NORSRAMInitStruct->FSMC_WaitSignalPolarity |
 260              		.loc 1 207 0
 261 0164 7B68     		ldr	r3, [r7, #4]
 262 0166 9B69     		ldr	r3, [r3, #24]
 206:../Libraries/STM32F10x_StdPeriph_Driver/src/stm32f10x_fsmc.c ****             FSMC_NORSRAMInitStruct->FSMC_AsynchronousWait |
 263              		.loc 1 206 0
 264 0168 1943     		orrs	r1, r1, r3
 208:../Libraries/STM32F10x_StdPeriph_Driver/src/stm32f10x_fsmc.c ****             FSMC_NORSRAMInitStruct->FSMC_WrapMode |
 265              		.loc 1 208 0
 266 016a 7B68     		ldr	r3, [r7, #4]
 267 016c DB69     		ldr	r3, [r3, #28]
 207:../Libraries/STM32F10x_StdPeriph_Driver/src/stm32f10x_fsmc.c ****             FSMC_NORSRAMInitStruct->FSMC_WaitSignalPolarity |
 268              		.loc 1 207 0
 269 016e 1943     		orrs	r1, r1, r3
 209:../Libraries/STM32F10x_StdPeriph_Driver/src/stm32f10x_fsmc.c ****             FSMC_NORSRAMInitStruct->FSMC_WaitSignalActive |
 270              		.loc 1 209 0
 271 0170 7B68     		ldr	r3, [r7, #4]
 272 0172 1B6A     		ldr	r3, [r3, #32]
 208:../Libraries/STM32F10x_StdPeriph_Driver/src/stm32f10x_fsmc.c ****             FSMC_NORSRAMInitStruct->FSMC_WrapMode |
 273              		.loc 1 208 0
 274 0174 1943     		orrs	r1, r1, r3
 210:../Libraries/STM32F10x_StdPeriph_Driver/src/stm32f10x_fsmc.c ****             FSMC_NORSRAMInitStruct->FSMC_WriteOperation |
 275              		.loc 1 210 0
 276 0176 7B68     		ldr	r3, [r7, #4]
 277 0178 5B6A     		ldr	r3, [r3, #36]
 209:../Libraries/STM32F10x_StdPeriph_Driver/src/stm32f10x_fsmc.c ****             FSMC_NORSRAMInitStruct->FSMC_WaitSignalActive |
 278              		.loc 1 209 0
 279 017a 1943     		orrs	r1, r1, r3
 211:../Libraries/STM32F10x_StdPeriph_Driver/src/stm32f10x_fsmc.c ****             FSMC_NORSRAMInitStruct->FSMC_WaitSignal |
 280              		.loc 1 211 0
 281 017c 7B68     		ldr	r3, [r7, #4]
 282 017e 9B6A     		ldr	r3, [r3, #40]
 210:../Libraries/STM32F10x_StdPeriph_Driver/src/stm32f10x_fsmc.c ****             FSMC_NORSRAMInitStruct->FSMC_WriteOperation |
 283              		.loc 1 210 0
 284 0180 1943     		orrs	r1, r1, r3
 212:../Libraries/STM32F10x_StdPeriph_Driver/src/stm32f10x_fsmc.c ****             FSMC_NORSRAMInitStruct->FSMC_ExtendedMode |
 285              		.loc 1 212 0
 286 0182 7B68     		ldr	r3, [r7, #4]
 287 0184 DB6A     		ldr	r3, [r3, #44]
 211:../Libraries/STM32F10x_StdPeriph_Driver/src/stm32f10x_fsmc.c ****             FSMC_NORSRAMInitStruct->FSMC_WaitSignal |
 288              		.loc 1 211 0
 289 0186 1943     		orrs	r1, r1, r3
 213:../Libraries/STM32F10x_StdPeriph_Driver/src/stm32f10x_fsmc.c ****             FSMC_NORSRAMInitStruct->FSMC_WriteBurst;
 290              		.loc 1 213 0
 291 0188 7B68     		ldr	r3, [r7, #4]
 292 018a 1B6B     		ldr	r3, [r3, #48]
 212:../Libraries/STM32F10x_StdPeriph_Driver/src/stm32f10x_fsmc.c ****             FSMC_NORSRAMInitStruct->FSMC_ExtendedMode |
 293              		.loc 1 212 0
 294 018c 1943     		orrs	r1, r1, r3
 201:../Libraries/STM32F10x_StdPeriph_Driver/src/stm32f10x_fsmc.c ****   FSMC_Bank1->BTCR[FSMC_NORSRAMInitStruct->FSMC_Bank] = 
 295              		.loc 1 201 0
 296 018e 0346     		mov	r3, r0
 297 0190 43F82210 		str	r1, [r3, r2, lsl #2]
 214:../Libraries/STM32F10x_StdPeriph_Driver/src/stm32f10x_fsmc.c **** 
 215:../Libraries/STM32F10x_StdPeriph_Driver/src/stm32f10x_fsmc.c ****   if(FSMC_NORSRAMInitStruct->FSMC_MemoryType == FSMC_MemoryType_NOR)
 298              		.loc 1 215 0
 299 0194 7B68     		ldr	r3, [r7, #4]
 300 0196 9B68     		ldr	r3, [r3, #8]
 301 0198 082B     		cmp	r3, #8
 302 019a 0FD1     		bne	.L9
 216:../Libraries/STM32F10x_StdPeriph_Driver/src/stm32f10x_fsmc.c ****   {
 217:../Libraries/STM32F10x_StdPeriph_Driver/src/stm32f10x_fsmc.c ****     FSMC_Bank1->BTCR[FSMC_NORSRAMInitStruct->FSMC_Bank] |= (uint32_t)BCR_FACCEN_Set;
 303              		.loc 1 217 0
 304 019c 4FF02040 		mov	r0, #-1610612736
 305 01a0 7B68     		ldr	r3, [r7, #4]
 306 01a2 1A68     		ldr	r2, [r3, #0]
 307 01a4 4FF02044 		mov	r4, #-1610612736
 308 01a8 7B68     		ldr	r3, [r7, #4]
 309 01aa 1968     		ldr	r1, [r3, #0]
 310 01ac 2346     		mov	r3, r4
 311 01ae 53F82130 		ldr	r3, [r3, r1, lsl #2]
 312 01b2 43F04001 		orr	r1, r3, #64
 313 01b6 0346     		mov	r3, r0
 314 01b8 43F82210 		str	r1, [r3, r2, lsl #2]
 315              	.L9:
 218:../Libraries/STM32F10x_StdPeriph_Driver/src/stm32f10x_fsmc.c ****   }
 219:../Libraries/STM32F10x_StdPeriph_Driver/src/stm32f10x_fsmc.c ****   
 220:../Libraries/STM32F10x_StdPeriph_Driver/src/stm32f10x_fsmc.c ****   /* Bank1 NOR/SRAM timing register configuration */
 221:../Libraries/STM32F10x_StdPeriph_Driver/src/stm32f10x_fsmc.c ****   FSMC_Bank1->BTCR[FSMC_NORSRAMInitStruct->FSMC_Bank+1] = 
 316              		.loc 1 221 0
 317 01bc 4FF02040 		mov	r0, #-1610612736
 318 01c0 7B68     		ldr	r3, [r7, #4]
 319 01c2 1B68     		ldr	r3, [r3, #0]
 320 01c4 03F10102 		add	r2, r3, #1
 222:../Libraries/STM32F10x_StdPeriph_Driver/src/stm32f10x_fsmc.c ****             (uint32_t)FSMC_NORSRAMInitStruct->FSMC_ReadWriteTimingStruct->FSMC_AddressSetupTime |
 321              		.loc 1 222 0
 322 01c8 7B68     		ldr	r3, [r7, #4]
 323 01ca 5B6B     		ldr	r3, [r3, #52]
 324 01cc 1968     		ldr	r1, [r3, #0]
 223:../Libraries/STM32F10x_StdPeriph_Driver/src/stm32f10x_fsmc.c ****             (FSMC_NORSRAMInitStruct->FSMC_ReadWriteTimingStruct->FSMC_AddressHoldTime << 4) |
 325              		.loc 1 223 0
 326 01ce 7B68     		ldr	r3, [r7, #4]
 327 01d0 5B6B     		ldr	r3, [r3, #52]
 328 01d2 5B68     		ldr	r3, [r3, #4]
 329 01d4 4FEA0313 		lsl	r3, r3, #4
 222:../Libraries/STM32F10x_StdPeriph_Driver/src/stm32f10x_fsmc.c ****             (uint32_t)FSMC_NORSRAMInitStruct->FSMC_ReadWriteTimingStruct->FSMC_AddressSetupTime |
 330              		.loc 1 222 0
 331 01d8 1943     		orrs	r1, r1, r3
 224:../Libraries/STM32F10x_StdPeriph_Driver/src/stm32f10x_fsmc.c ****             (FSMC_NORSRAMInitStruct->FSMC_ReadWriteTimingStruct->FSMC_DataSetupTime << 8) |
 332              		.loc 1 224 0
 333 01da 7B68     		ldr	r3, [r7, #4]
 334 01dc 5B6B     		ldr	r3, [r3, #52]
 335 01de 9B68     		ldr	r3, [r3, #8]
 336 01e0 4FEA0323 		lsl	r3, r3, #8
 223:../Libraries/STM32F10x_StdPeriph_Driver/src/stm32f10x_fsmc.c ****             (FSMC_NORSRAMInitStruct->FSMC_ReadWriteTimingStruct->FSMC_AddressHoldTime << 4) |
 337              		.loc 1 223 0
 338 01e4 1943     		orrs	r1, r1, r3
 225:../Libraries/STM32F10x_StdPeriph_Driver/src/stm32f10x_fsmc.c ****             (FSMC_NORSRAMInitStruct->FSMC_ReadWriteTimingStruct->FSMC_BusTurnAroundDuration << 16) 
 339              		.loc 1 225 0
 340 01e6 7B68     		ldr	r3, [r7, #4]
 341 01e8 5B6B     		ldr	r3, [r3, #52]
 342 01ea DB68     		ldr	r3, [r3, #12]
 343 01ec 4FEA0343 		lsl	r3, r3, #16
 224:../Libraries/STM32F10x_StdPeriph_Driver/src/stm32f10x_fsmc.c ****             (FSMC_NORSRAMInitStruct->FSMC_ReadWriteTimingStruct->FSMC_DataSetupTime << 8) |
 344              		.loc 1 224 0
 345 01f0 1943     		orrs	r1, r1, r3
 226:../Libraries/STM32F10x_StdPeriph_Driver/src/stm32f10x_fsmc.c ****             (FSMC_NORSRAMInitStruct->FSMC_ReadWriteTimingStruct->FSMC_CLKDivision << 20) |
 346              		.loc 1 226 0
 347 01f2 7B68     		ldr	r3, [r7, #4]
 348 01f4 5B6B     		ldr	r3, [r3, #52]
 349 01f6 1B69     		ldr	r3, [r3, #16]
 350 01f8 4FEA0353 		lsl	r3, r3, #20
 225:../Libraries/STM32F10x_StdPeriph_Driver/src/stm32f10x_fsmc.c ****             (FSMC_NORSRAMInitStruct->FSMC_ReadWriteTimingStruct->FSMC_BusTurnAroundDuration << 16) 
 351              		.loc 1 225 0
 352 01fc 1943     		orrs	r1, r1, r3
 227:../Libraries/STM32F10x_StdPeriph_Driver/src/stm32f10x_fsmc.c ****             (FSMC_NORSRAMInitStruct->FSMC_ReadWriteTimingStruct->FSMC_DataLatency << 24) |
 353              		.loc 1 227 0
 354 01fe 7B68     		ldr	r3, [r7, #4]
 355 0200 5B6B     		ldr	r3, [r3, #52]
 356 0202 5B69     		ldr	r3, [r3, #20]
 357 0204 4FEA0363 		lsl	r3, r3, #24
 226:../Libraries/STM32F10x_StdPeriph_Driver/src/stm32f10x_fsmc.c ****             (FSMC_NORSRAMInitStruct->FSMC_ReadWriteTimingStruct->FSMC_CLKDivision << 20) |
 358              		.loc 1 226 0
 359 0208 1943     		orrs	r1, r1, r3
 228:../Libraries/STM32F10x_StdPeriph_Driver/src/stm32f10x_fsmc.c ****              FSMC_NORSRAMInitStruct->FSMC_ReadWriteTimingStruct->FSMC_AccessMode;
 360              		.loc 1 228 0
 361 020a 7B68     		ldr	r3, [r7, #4]
 362 020c 5B6B     		ldr	r3, [r3, #52]
 363 020e 9B69     		ldr	r3, [r3, #24]
 227:../Libraries/STM32F10x_StdPeriph_Driver/src/stm32f10x_fsmc.c ****             (FSMC_NORSRAMInitStruct->FSMC_ReadWriteTimingStruct->FSMC_DataLatency << 24) |
 364              		.loc 1 227 0
 365 0210 1943     		orrs	r1, r1, r3
 221:../Libraries/STM32F10x_StdPeriph_Driver/src/stm32f10x_fsmc.c ****   FSMC_Bank1->BTCR[FSMC_NORSRAMInitStruct->FSMC_Bank+1] = 
 366              		.loc 1 221 0
 367 0212 0346     		mov	r3, r0
 368 0214 43F82210 		str	r1, [r3, r2, lsl #2]
 229:../Libraries/STM32F10x_StdPeriph_Driver/src/stm32f10x_fsmc.c ****             
 230:../Libraries/STM32F10x_StdPeriph_Driver/src/stm32f10x_fsmc.c ****     
 231:../Libraries/STM32F10x_StdPeriph_Driver/src/stm32f10x_fsmc.c ****   /* Bank1 NOR/SRAM timing register for write configuration, if extended mode is used */
 232:../Libraries/STM32F10x_StdPeriph_Driver/src/stm32f10x_fsmc.c ****   if(FSMC_NORSRAMInitStruct->FSMC_ExtendedMode == FSMC_ExtendedMode_Enable)
 369              		.loc 1 232 0
 370 0218 7B68     		ldr	r3, [r7, #4]
 371 021a DB6A     		ldr	r3, [r3, #44]
 372 021c B3F5804F 		cmp	r3, #16384
 373 0220 27D1     		bne	.L10
 233:../Libraries/STM32F10x_StdPeriph_Driver/src/stm32f10x_fsmc.c ****   {
 234:../Libraries/STM32F10x_StdPeriph_Driver/src/stm32f10x_fsmc.c ****     assert_param(IS_FSMC_ADDRESS_SETUP_TIME(FSMC_NORSRAMInitStruct->FSMC_WriteTimingStruct->FSMC_Ad
 235:../Libraries/STM32F10x_StdPeriph_Driver/src/stm32f10x_fsmc.c ****     assert_param(IS_FSMC_ADDRESS_HOLD_TIME(FSMC_NORSRAMInitStruct->FSMC_WriteTimingStruct->FSMC_Add
 236:../Libraries/STM32F10x_StdPeriph_Driver/src/stm32f10x_fsmc.c ****     assert_param(IS_FSMC_DATASETUP_TIME(FSMC_NORSRAMInitStruct->FSMC_WriteTimingStruct->FSMC_DataSe
 237:../Libraries/STM32F10x_StdPeriph_Driver/src/stm32f10x_fsmc.c ****     assert_param(IS_FSMC_CLK_DIV(FSMC_NORSRAMInitStruct->FSMC_WriteTimingStruct->FSMC_CLKDivision))
 238:../Libraries/STM32F10x_StdPeriph_Driver/src/stm32f10x_fsmc.c ****     assert_param(IS_FSMC_DATA_LATENCY(FSMC_NORSRAMInitStruct->FSMC_WriteTimingStruct->FSMC_DataLate
 239:../Libraries/STM32F10x_StdPeriph_Driver/src/stm32f10x_fsmc.c ****     assert_param(IS_FSMC_ACCESS_MODE(FSMC_NORSRAMInitStruct->FSMC_WriteTimingStruct->FSMC_AccessMod
 240:../Libraries/STM32F10x_StdPeriph_Driver/src/stm32f10x_fsmc.c ****     FSMC_Bank1E->BWTR[FSMC_NORSRAMInitStruct->FSMC_Bank] = 
 374              		.loc 1 240 0
 375 0222 4FF48273 		mov	r3, #260
 376 0226 CAF20003 		movt	r3, 40960
 377 022a 7A68     		ldr	r2, [r7, #4]
 378 022c 1268     		ldr	r2, [r2, #0]
 241:../Libraries/STM32F10x_StdPeriph_Driver/src/stm32f10x_fsmc.c ****               (uint32_t)FSMC_NORSRAMInitStruct->FSMC_WriteTimingStruct->FSMC_AddressSetupTime |
 379              		.loc 1 241 0
 380 022e 7968     		ldr	r1, [r7, #4]
 381 0230 896B     		ldr	r1, [r1, #56]
 382 0232 0868     		ldr	r0, [r1, #0]
 242:../Libraries/STM32F10x_StdPeriph_Driver/src/stm32f10x_fsmc.c ****               (FSMC_NORSRAMInitStruct->FSMC_WriteTimingStruct->FSMC_AddressHoldTime << 4 )|
 383              		.loc 1 242 0
 384 0234 7968     		ldr	r1, [r7, #4]
 385 0236 896B     		ldr	r1, [r1, #56]
 386 0238 4968     		ldr	r1, [r1, #4]
 387 023a 4FEA0111 		lsl	r1, r1, #4
 241:../Libraries/STM32F10x_StdPeriph_Driver/src/stm32f10x_fsmc.c ****               (uint32_t)FSMC_NORSRAMInitStruct->FSMC_WriteTimingStruct->FSMC_AddressSetupTime |
 388              		.loc 1 241 0
 389 023e 0843     		orrs	r0, r0, r1
 243:../Libraries/STM32F10x_StdPeriph_Driver/src/stm32f10x_fsmc.c ****               (FSMC_NORSRAMInitStruct->FSMC_WriteTimingStruct->FSMC_DataSetupTime << 8) |
 390              		.loc 1 243 0
 391 0240 7968     		ldr	r1, [r7, #4]
 392 0242 896B     		ldr	r1, [r1, #56]
 393 0244 8968     		ldr	r1, [r1, #8]
 394 0246 4FEA0121 		lsl	r1, r1, #8
 242:../Libraries/STM32F10x_StdPeriph_Driver/src/stm32f10x_fsmc.c ****               (FSMC_NORSRAMInitStruct->FSMC_WriteTimingStruct->FSMC_AddressHoldTime << 4 )|
 395              		.loc 1 242 0
 396 024a 0843     		orrs	r0, r0, r1
 244:../Libraries/STM32F10x_StdPeriph_Driver/src/stm32f10x_fsmc.c ****               (FSMC_NORSRAMInitStruct->FSMC_WriteTimingStruct->FSMC_CLKDivision << 20) |
 397              		.loc 1 244 0
 398 024c 7968     		ldr	r1, [r7, #4]
 399 024e 896B     		ldr	r1, [r1, #56]
 400 0250 0969     		ldr	r1, [r1, #16]
 401 0252 4FEA0151 		lsl	r1, r1, #20
 243:../Libraries/STM32F10x_StdPeriph_Driver/src/stm32f10x_fsmc.c ****               (FSMC_NORSRAMInitStruct->FSMC_WriteTimingStruct->FSMC_DataSetupTime << 8) |
 402              		.loc 1 243 0
 403 0256 0843     		orrs	r0, r0, r1
 245:../Libraries/STM32F10x_StdPeriph_Driver/src/stm32f10x_fsmc.c ****               (FSMC_NORSRAMInitStruct->FSMC_WriteTimingStruct->FSMC_DataLatency << 24) |
 404              		.loc 1 245 0
 405 0258 7968     		ldr	r1, [r7, #4]
 406 025a 896B     		ldr	r1, [r1, #56]
 407 025c 4969     		ldr	r1, [r1, #20]
 408 025e 4FEA0161 		lsl	r1, r1, #24
 244:../Libraries/STM32F10x_StdPeriph_Driver/src/stm32f10x_fsmc.c ****               (FSMC_NORSRAMInitStruct->FSMC_WriteTimingStruct->FSMC_CLKDivision << 20) |
 409              		.loc 1 244 0
 410 0262 0843     		orrs	r0, r0, r1
 246:../Libraries/STM32F10x_StdPeriph_Driver/src/stm32f10x_fsmc.c ****                FSMC_NORSRAMInitStruct->FSMC_WriteTimingStruct->FSMC_AccessMode;
 411              		.loc 1 246 0
 412 0264 7968     		ldr	r1, [r7, #4]
 413 0266 896B     		ldr	r1, [r1, #56]
 414 0268 8969     		ldr	r1, [r1, #24]
 245:../Libraries/STM32F10x_StdPeriph_Driver/src/stm32f10x_fsmc.c ****               (FSMC_NORSRAMInitStruct->FSMC_WriteTimingStruct->FSMC_DataLatency << 24) |
 415              		.loc 1 245 0
 416 026a 0143     		orrs	r1, r1, r0
 240:../Libraries/STM32F10x_StdPeriph_Driver/src/stm32f10x_fsmc.c ****     FSMC_Bank1E->BWTR[FSMC_NORSRAMInitStruct->FSMC_Bank] = 
 417              		.loc 1 240 0
 418 026c 43F82210 		str	r1, [r3, r2, lsl #2]
 419 0270 09E0     		b	.L8
 420              	.L10:
 247:../Libraries/STM32F10x_StdPeriph_Driver/src/stm32f10x_fsmc.c ****   }
 248:../Libraries/STM32F10x_StdPeriph_Driver/src/stm32f10x_fsmc.c ****   else
 249:../Libraries/STM32F10x_StdPeriph_Driver/src/stm32f10x_fsmc.c ****   {
 250:../Libraries/STM32F10x_StdPeriph_Driver/src/stm32f10x_fsmc.c ****     FSMC_Bank1E->BWTR[FSMC_NORSRAMInitStruct->FSMC_Bank] = 0x0FFFFFFF;
 421              		.loc 1 250 0
 422 0272 4FF48273 		mov	r3, #260
 423 0276 CAF20003 		movt	r3, 40960
 424 027a 7A68     		ldr	r2, [r7, #4]
 425 027c 1268     		ldr	r2, [r2, #0]
 426 027e 6FF07041 		mvn	r1, #-268435456
 427 0282 43F82210 		str	r1, [r3, r2, lsl #2]
 428              	.L8:
 251:../Libraries/STM32F10x_StdPeriph_Driver/src/stm32f10x_fsmc.c ****   }
 252:../Libraries/STM32F10x_StdPeriph_Driver/src/stm32f10x_fsmc.c **** }
 429              		.loc 1 252 0
 430 0286 07F10807 		add	r7, r7, #8
 431 028a BD46     		mov	sp, r7
 432 028c 90BC     		pop	{r4, r7}
 433 028e 7047     		bx	lr
 434              		.cfi_endproc
 435              	.LFE32:
 437              		.align	2
 438              		.global	FSMC_NANDInit
 439              		.thumb
 440              		.thumb_func
 442              	FSMC_NANDInit:
 443              	.LFB33:
 253:../Libraries/STM32F10x_StdPeriph_Driver/src/stm32f10x_fsmc.c **** 
 254:../Libraries/STM32F10x_StdPeriph_Driver/src/stm32f10x_fsmc.c **** /**
 255:../Libraries/STM32F10x_StdPeriph_Driver/src/stm32f10x_fsmc.c ****   * @brief  Initializes the FSMC NAND Banks according to the specified 
 256:../Libraries/STM32F10x_StdPeriph_Driver/src/stm32f10x_fsmc.c ****   *         parameters in the FSMC_NANDInitStruct.
 257:../Libraries/STM32F10x_StdPeriph_Driver/src/stm32f10x_fsmc.c ****   * @param  FSMC_NANDInitStruct : pointer to a FSMC_NANDInitTypeDef 
 258:../Libraries/STM32F10x_StdPeriph_Driver/src/stm32f10x_fsmc.c ****   *         structure that contains the configuration information for the FSMC 
 259:../Libraries/STM32F10x_StdPeriph_Driver/src/stm32f10x_fsmc.c ****   *         NAND specified Banks.                       
 260:../Libraries/STM32F10x_StdPeriph_Driver/src/stm32f10x_fsmc.c ****   * @retval None
 261:../Libraries/STM32F10x_StdPeriph_Driver/src/stm32f10x_fsmc.c ****   */
 262:../Libraries/STM32F10x_StdPeriph_Driver/src/stm32f10x_fsmc.c **** void FSMC_NANDInit(FSMC_NANDInitTypeDef* FSMC_NANDInitStruct)
 263:../Libraries/STM32F10x_StdPeriph_Driver/src/stm32f10x_fsmc.c **** {
 444              		.loc 1 263 0
 445              		.cfi_startproc
 446              		@ args = 0, pretend = 0, frame = 24
 447              		@ frame_needed = 1, uses_anonymous_args = 0
 448              		@ link register save eliminated.
 449 0290 80B4     		push	{r7}
 450              	.LCFI11:
 451              		.cfi_def_cfa_offset 4
 452              		.cfi_offset 7, -4
 453 0292 87B0     		sub	sp, sp, #28
 454              	.LCFI12:
 455              		.cfi_def_cfa_offset 32
 456 0294 00AF     		add	r7, sp, #0
 457              	.LCFI13:
 458              		.cfi_def_cfa_register 7
 459 0296 7860     		str	r0, [r7, #4]
 264:../Libraries/STM32F10x_StdPeriph_Driver/src/stm32f10x_fsmc.c ****   uint32_t tmppcr = 0x00000000, tmppmem = 0x00000000, tmppatt = 0x00000000; 
 460              		.loc 1 264 0
 461 0298 4FF00003 		mov	r3, #0
 462 029c 7B61     		str	r3, [r7, #20]
 463 029e 4FF00003 		mov	r3, #0
 464 02a2 3B61     		str	r3, [r7, #16]
 465 02a4 4FF00003 		mov	r3, #0
 466 02a8 FB60     		str	r3, [r7, #12]
 265:../Libraries/STM32F10x_StdPeriph_Driver/src/stm32f10x_fsmc.c ****     
 266:../Libraries/STM32F10x_StdPeriph_Driver/src/stm32f10x_fsmc.c ****   /* Check the parameters */
 267:../Libraries/STM32F10x_StdPeriph_Driver/src/stm32f10x_fsmc.c ****   assert_param( IS_FSMC_NAND_BANK(FSMC_NANDInitStruct->FSMC_Bank));
 268:../Libraries/STM32F10x_StdPeriph_Driver/src/stm32f10x_fsmc.c ****   assert_param( IS_FSMC_WAIT_FEATURE(FSMC_NANDInitStruct->FSMC_Waitfeature));
 269:../Libraries/STM32F10x_StdPeriph_Driver/src/stm32f10x_fsmc.c ****   assert_param( IS_FSMC_MEMORY_WIDTH(FSMC_NANDInitStruct->FSMC_MemoryDataWidth));
 270:../Libraries/STM32F10x_StdPeriph_Driver/src/stm32f10x_fsmc.c ****   assert_param( IS_FSMC_ECC_STATE(FSMC_NANDInitStruct->FSMC_ECC));
 271:../Libraries/STM32F10x_StdPeriph_Driver/src/stm32f10x_fsmc.c ****   assert_param( IS_FSMC_ECCPAGE_SIZE(FSMC_NANDInitStruct->FSMC_ECCPageSize));
 272:../Libraries/STM32F10x_StdPeriph_Driver/src/stm32f10x_fsmc.c ****   assert_param( IS_FSMC_TCLR_TIME(FSMC_NANDInitStruct->FSMC_TCLRSetupTime));
 273:../Libraries/STM32F10x_StdPeriph_Driver/src/stm32f10x_fsmc.c ****   assert_param( IS_FSMC_TAR_TIME(FSMC_NANDInitStruct->FSMC_TARSetupTime));
 274:../Libraries/STM32F10x_StdPeriph_Driver/src/stm32f10x_fsmc.c ****   assert_param(IS_FSMC_SETUP_TIME(FSMC_NANDInitStruct->FSMC_CommonSpaceTimingStruct->FSMC_SetupTime
 275:../Libraries/STM32F10x_StdPeriph_Driver/src/stm32f10x_fsmc.c ****   assert_param(IS_FSMC_WAIT_TIME(FSMC_NANDInitStruct->FSMC_CommonSpaceTimingStruct->FSMC_WaitSetupT
 276:../Libraries/STM32F10x_StdPeriph_Driver/src/stm32f10x_fsmc.c ****   assert_param(IS_FSMC_HOLD_TIME(FSMC_NANDInitStruct->FSMC_CommonSpaceTimingStruct->FSMC_HoldSetupT
 277:../Libraries/STM32F10x_StdPeriph_Driver/src/stm32f10x_fsmc.c ****   assert_param(IS_FSMC_HIZ_TIME(FSMC_NANDInitStruct->FSMC_CommonSpaceTimingStruct->FSMC_HiZSetupTim
 278:../Libraries/STM32F10x_StdPeriph_Driver/src/stm32f10x_fsmc.c ****   assert_param(IS_FSMC_SETUP_TIME(FSMC_NANDInitStruct->FSMC_AttributeSpaceTimingStruct->FSMC_SetupT
 279:../Libraries/STM32F10x_StdPeriph_Driver/src/stm32f10x_fsmc.c ****   assert_param(IS_FSMC_WAIT_TIME(FSMC_NANDInitStruct->FSMC_AttributeSpaceTimingStruct->FSMC_WaitSet
 280:../Libraries/STM32F10x_StdPeriph_Driver/src/stm32f10x_fsmc.c ****   assert_param(IS_FSMC_HOLD_TIME(FSMC_NANDInitStruct->FSMC_AttributeSpaceTimingStruct->FSMC_HoldSet
 281:../Libraries/STM32F10x_StdPeriph_Driver/src/stm32f10x_fsmc.c ****   assert_param(IS_FSMC_HIZ_TIME(FSMC_NANDInitStruct->FSMC_AttributeSpaceTimingStruct->FSMC_HiZSetup
 282:../Libraries/STM32F10x_StdPeriph_Driver/src/stm32f10x_fsmc.c ****   
 283:../Libraries/STM32F10x_StdPeriph_Driver/src/stm32f10x_fsmc.c ****   /* Set the tmppcr value according to FSMC_NANDInitStruct parameters */
 284:../Libraries/STM32F10x_StdPeriph_Driver/src/stm32f10x_fsmc.c ****   tmppcr = (uint32_t)FSMC_NANDInitStruct->FSMC_Waitfeature |
 467              		.loc 1 284 0
 468 02aa 7B68     		ldr	r3, [r7, #4]
 469 02ac 5A68     		ldr	r2, [r3, #4]
 285:../Libraries/STM32F10x_StdPeriph_Driver/src/stm32f10x_fsmc.c ****             PCR_MemoryType_NAND |
 286:../Libraries/STM32F10x_StdPeriph_Driver/src/stm32f10x_fsmc.c ****             FSMC_NANDInitStruct->FSMC_MemoryDataWidth |
 470              		.loc 1 286 0
 471 02ae 7B68     		ldr	r3, [r7, #4]
 472 02b0 9B68     		ldr	r3, [r3, #8]
 285:../Libraries/STM32F10x_StdPeriph_Driver/src/stm32f10x_fsmc.c ****             PCR_MemoryType_NAND |
 473              		.loc 1 285 0
 474 02b2 1A43     		orrs	r2, r2, r3
 287:../Libraries/STM32F10x_StdPeriph_Driver/src/stm32f10x_fsmc.c ****             FSMC_NANDInitStruct->FSMC_ECC |
 475              		.loc 1 287 0
 476 02b4 7B68     		ldr	r3, [r7, #4]
 477 02b6 DB68     		ldr	r3, [r3, #12]
 286:../Libraries/STM32F10x_StdPeriph_Driver/src/stm32f10x_fsmc.c ****             FSMC_NANDInitStruct->FSMC_MemoryDataWidth |
 478              		.loc 1 286 0
 479 02b8 1A43     		orrs	r2, r2, r3
 288:../Libraries/STM32F10x_StdPeriph_Driver/src/stm32f10x_fsmc.c ****             FSMC_NANDInitStruct->FSMC_ECCPageSize |
 480              		.loc 1 288 0
 481 02ba 7B68     		ldr	r3, [r7, #4]
 482 02bc 1B69     		ldr	r3, [r3, #16]
 287:../Libraries/STM32F10x_StdPeriph_Driver/src/stm32f10x_fsmc.c ****             FSMC_NANDInitStruct->FSMC_ECC |
 483              		.loc 1 287 0
 484 02be 1A43     		orrs	r2, r2, r3
 289:../Libraries/STM32F10x_StdPeriph_Driver/src/stm32f10x_fsmc.c ****             (FSMC_NANDInitStruct->FSMC_TCLRSetupTime << 9 )|
 485              		.loc 1 289 0
 486 02c0 7B68     		ldr	r3, [r7, #4]
 487 02c2 5B69     		ldr	r3, [r3, #20]
 488 02c4 4FEA4323 		lsl	r3, r3, #9
 288:../Libraries/STM32F10x_StdPeriph_Driver/src/stm32f10x_fsmc.c ****             FSMC_NANDInitStruct->FSMC_ECCPageSize |
 489              		.loc 1 288 0
 490 02c8 1A43     		orrs	r2, r2, r3
 290:../Libraries/STM32F10x_StdPeriph_Driver/src/stm32f10x_fsmc.c ****             (FSMC_NANDInitStruct->FSMC_TARSetupTime << 13);
 491              		.loc 1 290 0
 492 02ca 7B68     		ldr	r3, [r7, #4]
 493 02cc 9B69     		ldr	r3, [r3, #24]
 494 02ce 4FEA4333 		lsl	r3, r3, #13
 289:../Libraries/STM32F10x_StdPeriph_Driver/src/stm32f10x_fsmc.c ****             (FSMC_NANDInitStruct->FSMC_TCLRSetupTime << 9 )|
 495              		.loc 1 289 0
 496 02d2 1343     		orrs	r3, r3, r2
 284:../Libraries/STM32F10x_StdPeriph_Driver/src/stm32f10x_fsmc.c ****   tmppcr = (uint32_t)FSMC_NANDInitStruct->FSMC_Waitfeature |
 497              		.loc 1 284 0
 498 02d4 43F00803 		orr	r3, r3, #8
 499 02d8 7B61     		str	r3, [r7, #20]
 291:../Libraries/STM32F10x_StdPeriph_Driver/src/stm32f10x_fsmc.c ****             
 292:../Libraries/STM32F10x_StdPeriph_Driver/src/stm32f10x_fsmc.c ****   /* Set tmppmem value according to FSMC_CommonSpaceTimingStructure parameters */
 293:../Libraries/STM32F10x_StdPeriph_Driver/src/stm32f10x_fsmc.c ****   tmppmem = (uint32_t)FSMC_NANDInitStruct->FSMC_CommonSpaceTimingStruct->FSMC_SetupTime |
 500              		.loc 1 293 0
 501 02da 7B68     		ldr	r3, [r7, #4]
 502 02dc DB69     		ldr	r3, [r3, #28]
 503 02de 1A68     		ldr	r2, [r3, #0]
 294:../Libraries/STM32F10x_StdPeriph_Driver/src/stm32f10x_fsmc.c ****             (FSMC_NANDInitStruct->FSMC_CommonSpaceTimingStruct->FSMC_WaitSetupTime << 8) |
 504              		.loc 1 294 0
 505 02e0 7B68     		ldr	r3, [r7, #4]
 506 02e2 DB69     		ldr	r3, [r3, #28]
 507 02e4 5B68     		ldr	r3, [r3, #4]
 508 02e6 4FEA0323 		lsl	r3, r3, #8
 293:../Libraries/STM32F10x_StdPeriph_Driver/src/stm32f10x_fsmc.c ****   tmppmem = (uint32_t)FSMC_NANDInitStruct->FSMC_CommonSpaceTimingStruct->FSMC_SetupTime |
 509              		.loc 1 293 0
 510 02ea 1A43     		orrs	r2, r2, r3
 295:../Libraries/STM32F10x_StdPeriph_Driver/src/stm32f10x_fsmc.c ****             (FSMC_NANDInitStruct->FSMC_CommonSpaceTimingStruct->FSMC_HoldSetupTime << 16)|
 511              		.loc 1 295 0
 512 02ec 7B68     		ldr	r3, [r7, #4]
 513 02ee DB69     		ldr	r3, [r3, #28]
 514 02f0 9B68     		ldr	r3, [r3, #8]
 515 02f2 4FEA0343 		lsl	r3, r3, #16
 294:../Libraries/STM32F10x_StdPeriph_Driver/src/stm32f10x_fsmc.c ****             (FSMC_NANDInitStruct->FSMC_CommonSpaceTimingStruct->FSMC_WaitSetupTime << 8) |
 516              		.loc 1 294 0
 517 02f6 1A43     		orrs	r2, r2, r3
 296:../Libraries/STM32F10x_StdPeriph_Driver/src/stm32f10x_fsmc.c ****             (FSMC_NANDInitStruct->FSMC_CommonSpaceTimingStruct->FSMC_HiZSetupTime << 24); 
 518              		.loc 1 296 0
 519 02f8 7B68     		ldr	r3, [r7, #4]
 520 02fa DB69     		ldr	r3, [r3, #28]
 521 02fc DB68     		ldr	r3, [r3, #12]
 522 02fe 4FEA0363 		lsl	r3, r3, #24
 293:../Libraries/STM32F10x_StdPeriph_Driver/src/stm32f10x_fsmc.c ****   tmppmem = (uint32_t)FSMC_NANDInitStruct->FSMC_CommonSpaceTimingStruct->FSMC_SetupTime |
 523              		.loc 1 293 0
 524 0302 1343     		orrs	r3, r3, r2
 525 0304 3B61     		str	r3, [r7, #16]
 297:../Libraries/STM32F10x_StdPeriph_Driver/src/stm32f10x_fsmc.c ****             
 298:../Libraries/STM32F10x_StdPeriph_Driver/src/stm32f10x_fsmc.c ****   /* Set tmppatt value according to FSMC_AttributeSpaceTimingStructure parameters */
 299:../Libraries/STM32F10x_StdPeriph_Driver/src/stm32f10x_fsmc.c ****   tmppatt = (uint32_t)FSMC_NANDInitStruct->FSMC_AttributeSpaceTimingStruct->FSMC_SetupTime |
 526              		.loc 1 299 0
 527 0306 7B68     		ldr	r3, [r7, #4]
 528 0308 1B6A     		ldr	r3, [r3, #32]
 529 030a 1A68     		ldr	r2, [r3, #0]
 300:../Libraries/STM32F10x_StdPeriph_Driver/src/stm32f10x_fsmc.c ****             (FSMC_NANDInitStruct->FSMC_AttributeSpaceTimingStruct->FSMC_WaitSetupTime << 8) |
 530              		.loc 1 300 0
 531 030c 7B68     		ldr	r3, [r7, #4]
 532 030e 1B6A     		ldr	r3, [r3, #32]
 533 0310 5B68     		ldr	r3, [r3, #4]
 534 0312 4FEA0323 		lsl	r3, r3, #8
 299:../Libraries/STM32F10x_StdPeriph_Driver/src/stm32f10x_fsmc.c ****   tmppatt = (uint32_t)FSMC_NANDInitStruct->FSMC_AttributeSpaceTimingStruct->FSMC_SetupTime |
 535              		.loc 1 299 0
 536 0316 1A43     		orrs	r2, r2, r3
 301:../Libraries/STM32F10x_StdPeriph_Driver/src/stm32f10x_fsmc.c ****             (FSMC_NANDInitStruct->FSMC_AttributeSpaceTimingStruct->FSMC_HoldSetupTime << 16)|
 537              		.loc 1 301 0
 538 0318 7B68     		ldr	r3, [r7, #4]
 539 031a 1B6A     		ldr	r3, [r3, #32]
 540 031c 9B68     		ldr	r3, [r3, #8]
 541 031e 4FEA0343 		lsl	r3, r3, #16
 300:../Libraries/STM32F10x_StdPeriph_Driver/src/stm32f10x_fsmc.c ****             (FSMC_NANDInitStruct->FSMC_AttributeSpaceTimingStruct->FSMC_WaitSetupTime << 8) |
 542              		.loc 1 300 0
 543 0322 1A43     		orrs	r2, r2, r3
 302:../Libraries/STM32F10x_StdPeriph_Driver/src/stm32f10x_fsmc.c ****             (FSMC_NANDInitStruct->FSMC_AttributeSpaceTimingStruct->FSMC_HiZSetupTime << 24);
 544              		.loc 1 302 0
 545 0324 7B68     		ldr	r3, [r7, #4]
 546 0326 1B6A     		ldr	r3, [r3, #32]
 547 0328 DB68     		ldr	r3, [r3, #12]
 548 032a 4FEA0363 		lsl	r3, r3, #24
 299:../Libraries/STM32F10x_StdPeriph_Driver/src/stm32f10x_fsmc.c ****   tmppatt = (uint32_t)FSMC_NANDInitStruct->FSMC_AttributeSpaceTimingStruct->FSMC_SetupTime |
 549              		.loc 1 299 0
 550 032e 1343     		orrs	r3, r3, r2
 551 0330 FB60     		str	r3, [r7, #12]
 303:../Libraries/STM32F10x_StdPeriph_Driver/src/stm32f10x_fsmc.c ****   
 304:../Libraries/STM32F10x_StdPeriph_Driver/src/stm32f10x_fsmc.c ****   if(FSMC_NANDInitStruct->FSMC_Bank == FSMC_Bank2_NAND)
 552              		.loc 1 304 0
 553 0332 7B68     		ldr	r3, [r7, #4]
 554 0334 1B68     		ldr	r3, [r3, #0]
 555 0336 102B     		cmp	r3, #16
 556 0338 12D1     		bne	.L13
 305:../Libraries/STM32F10x_StdPeriph_Driver/src/stm32f10x_fsmc.c ****   {
 306:../Libraries/STM32F10x_StdPeriph_Driver/src/stm32f10x_fsmc.c ****     /* FSMC_Bank2_NAND registers configuration */
 307:../Libraries/STM32F10x_StdPeriph_Driver/src/stm32f10x_fsmc.c ****     FSMC_Bank2->PCR2 = tmppcr;
 557              		.loc 1 307 0
 558 033a 4FF06003 		mov	r3, #96
 559 033e CAF20003 		movt	r3, 40960
 560 0342 7A69     		ldr	r2, [r7, #20]
 561 0344 1A60     		str	r2, [r3, #0]
 308:../Libraries/STM32F10x_StdPeriph_Driver/src/stm32f10x_fsmc.c ****     FSMC_Bank2->PMEM2 = tmppmem;
 562              		.loc 1 308 0
 563 0346 4FF06003 		mov	r3, #96
 564 034a CAF20003 		movt	r3, 40960
 565 034e 3A69     		ldr	r2, [r7, #16]
 566 0350 9A60     		str	r2, [r3, #8]
 309:../Libraries/STM32F10x_StdPeriph_Driver/src/stm32f10x_fsmc.c ****     FSMC_Bank2->PATT2 = tmppatt;
 567              		.loc 1 309 0
 568 0352 4FF06003 		mov	r3, #96
 569 0356 CAF20003 		movt	r3, 40960
 570 035a FA68     		ldr	r2, [r7, #12]
 571 035c DA60     		str	r2, [r3, #12]
 572 035e 11E0     		b	.L12
 573              	.L13:
 310:../Libraries/STM32F10x_StdPeriph_Driver/src/stm32f10x_fsmc.c ****   }
 311:../Libraries/STM32F10x_StdPeriph_Driver/src/stm32f10x_fsmc.c ****   else
 312:../Libraries/STM32F10x_StdPeriph_Driver/src/stm32f10x_fsmc.c ****   {
 313:../Libraries/STM32F10x_StdPeriph_Driver/src/stm32f10x_fsmc.c ****     /* FSMC_Bank3_NAND registers configuration */
 314:../Libraries/STM32F10x_StdPeriph_Driver/src/stm32f10x_fsmc.c ****     FSMC_Bank3->PCR3 = tmppcr;
 574              		.loc 1 314 0
 575 0360 4FF08003 		mov	r3, #128
 576 0364 CAF20003 		movt	r3, 40960
 577 0368 7A69     		ldr	r2, [r7, #20]
 578 036a 1A60     		str	r2, [r3, #0]
 315:../Libraries/STM32F10x_StdPeriph_Driver/src/stm32f10x_fsmc.c ****     FSMC_Bank3->PMEM3 = tmppmem;
 579              		.loc 1 315 0
 580 036c 4FF08003 		mov	r3, #128
 581 0370 CAF20003 		movt	r3, 40960
 582 0374 3A69     		ldr	r2, [r7, #16]
 583 0376 9A60     		str	r2, [r3, #8]
 316:../Libraries/STM32F10x_StdPeriph_Driver/src/stm32f10x_fsmc.c ****     FSMC_Bank3->PATT3 = tmppatt;
 584              		.loc 1 316 0
 585 0378 4FF08003 		mov	r3, #128
 586 037c CAF20003 		movt	r3, 40960
 587 0380 FA68     		ldr	r2, [r7, #12]
 588 0382 DA60     		str	r2, [r3, #12]
 589              	.L12:
 317:../Libraries/STM32F10x_StdPeriph_Driver/src/stm32f10x_fsmc.c ****   }
 318:../Libraries/STM32F10x_StdPeriph_Driver/src/stm32f10x_fsmc.c **** }
 590              		.loc 1 318 0
 591 0384 07F11C07 		add	r7, r7, #28
 592 0388 BD46     		mov	sp, r7
 593 038a 80BC     		pop	{r7}
 594 038c 7047     		bx	lr
 595              		.cfi_endproc
 596              	.LFE33:
 598 038e 00BF     		.align	2
 599              		.global	FSMC_PCCARDInit
 600              		.thumb
 601              		.thumb_func
 603              	FSMC_PCCARDInit:
 604              	.LFB34:
 319:../Libraries/STM32F10x_StdPeriph_Driver/src/stm32f10x_fsmc.c **** 
 320:../Libraries/STM32F10x_StdPeriph_Driver/src/stm32f10x_fsmc.c **** /**
 321:../Libraries/STM32F10x_StdPeriph_Driver/src/stm32f10x_fsmc.c ****   * @brief  Initializes the FSMC PCCARD Bank according to the specified 
 322:../Libraries/STM32F10x_StdPeriph_Driver/src/stm32f10x_fsmc.c ****   *         parameters in the FSMC_PCCARDInitStruct.
 323:../Libraries/STM32F10x_StdPeriph_Driver/src/stm32f10x_fsmc.c ****   * @param  FSMC_PCCARDInitStruct : pointer to a FSMC_PCCARDInitTypeDef
 324:../Libraries/STM32F10x_StdPeriph_Driver/src/stm32f10x_fsmc.c ****   *         structure that contains the configuration information for the FSMC 
 325:../Libraries/STM32F10x_StdPeriph_Driver/src/stm32f10x_fsmc.c ****   *         PCCARD Bank.                       
 326:../Libraries/STM32F10x_StdPeriph_Driver/src/stm32f10x_fsmc.c ****   * @retval None
 327:../Libraries/STM32F10x_StdPeriph_Driver/src/stm32f10x_fsmc.c ****   */
 328:../Libraries/STM32F10x_StdPeriph_Driver/src/stm32f10x_fsmc.c **** void FSMC_PCCARDInit(FSMC_PCCARDInitTypeDef* FSMC_PCCARDInitStruct)
 329:../Libraries/STM32F10x_StdPeriph_Driver/src/stm32f10x_fsmc.c **** {
 605              		.loc 1 329 0
 606              		.cfi_startproc
 607              		@ args = 0, pretend = 0, frame = 8
 608              		@ frame_needed = 1, uses_anonymous_args = 0
 609              		@ link register save eliminated.
 610 0390 80B4     		push	{r7}
 611              	.LCFI14:
 612              		.cfi_def_cfa_offset 4
 613              		.cfi_offset 7, -4
 614 0392 83B0     		sub	sp, sp, #12
 615              	.LCFI15:
 616              		.cfi_def_cfa_offset 16
 617 0394 00AF     		add	r7, sp, #0
 618              	.LCFI16:
 619              		.cfi_def_cfa_register 7
 620 0396 7860     		str	r0, [r7, #4]
 330:../Libraries/STM32F10x_StdPeriph_Driver/src/stm32f10x_fsmc.c ****   /* Check the parameters */
 331:../Libraries/STM32F10x_StdPeriph_Driver/src/stm32f10x_fsmc.c ****   assert_param(IS_FSMC_WAIT_FEATURE(FSMC_PCCARDInitStruct->FSMC_Waitfeature));
 332:../Libraries/STM32F10x_StdPeriph_Driver/src/stm32f10x_fsmc.c ****   assert_param(IS_FSMC_TCLR_TIME(FSMC_PCCARDInitStruct->FSMC_TCLRSetupTime));
 333:../Libraries/STM32F10x_StdPeriph_Driver/src/stm32f10x_fsmc.c ****   assert_param(IS_FSMC_TAR_TIME(FSMC_PCCARDInitStruct->FSMC_TARSetupTime));
 334:../Libraries/STM32F10x_StdPeriph_Driver/src/stm32f10x_fsmc.c ****  
 335:../Libraries/STM32F10x_StdPeriph_Driver/src/stm32f10x_fsmc.c ****   assert_param(IS_FSMC_SETUP_TIME(FSMC_PCCARDInitStruct->FSMC_CommonSpaceTimingStruct->FSMC_SetupTi
 336:../Libraries/STM32F10x_StdPeriph_Driver/src/stm32f10x_fsmc.c ****   assert_param(IS_FSMC_WAIT_TIME(FSMC_PCCARDInitStruct->FSMC_CommonSpaceTimingStruct->FSMC_WaitSetu
 337:../Libraries/STM32F10x_StdPeriph_Driver/src/stm32f10x_fsmc.c ****   assert_param(IS_FSMC_HOLD_TIME(FSMC_PCCARDInitStruct->FSMC_CommonSpaceTimingStruct->FSMC_HoldSetu
 338:../Libraries/STM32F10x_StdPeriph_Driver/src/stm32f10x_fsmc.c ****   assert_param(IS_FSMC_HIZ_TIME(FSMC_PCCARDInitStruct->FSMC_CommonSpaceTimingStruct->FSMC_HiZSetupT
 339:../Libraries/STM32F10x_StdPeriph_Driver/src/stm32f10x_fsmc.c ****   
 340:../Libraries/STM32F10x_StdPeriph_Driver/src/stm32f10x_fsmc.c ****   assert_param(IS_FSMC_SETUP_TIME(FSMC_PCCARDInitStruct->FSMC_AttributeSpaceTimingStruct->FSMC_Setu
 341:../Libraries/STM32F10x_StdPeriph_Driver/src/stm32f10x_fsmc.c ****   assert_param(IS_FSMC_WAIT_TIME(FSMC_PCCARDInitStruct->FSMC_AttributeSpaceTimingStruct->FSMC_WaitS
 342:../Libraries/STM32F10x_StdPeriph_Driver/src/stm32f10x_fsmc.c ****   assert_param(IS_FSMC_HOLD_TIME(FSMC_PCCARDInitStruct->FSMC_AttributeSpaceTimingStruct->FSMC_HoldS
 343:../Libraries/STM32F10x_StdPeriph_Driver/src/stm32f10x_fsmc.c ****   assert_param(IS_FSMC_HIZ_TIME(FSMC_PCCARDInitStruct->FSMC_AttributeSpaceTimingStruct->FSMC_HiZSet
 344:../Libraries/STM32F10x_StdPeriph_Driver/src/stm32f10x_fsmc.c ****   assert_param(IS_FSMC_SETUP_TIME(FSMC_PCCARDInitStruct->FSMC_IOSpaceTimingStruct->FSMC_SetupTime))
 345:../Libraries/STM32F10x_StdPeriph_Driver/src/stm32f10x_fsmc.c ****   assert_param(IS_FSMC_WAIT_TIME(FSMC_PCCARDInitStruct->FSMC_IOSpaceTimingStruct->FSMC_WaitSetupTim
 346:../Libraries/STM32F10x_StdPeriph_Driver/src/stm32f10x_fsmc.c ****   assert_param(IS_FSMC_HOLD_TIME(FSMC_PCCARDInitStruct->FSMC_IOSpaceTimingStruct->FSMC_HoldSetupTim
 347:../Libraries/STM32F10x_StdPeriph_Driver/src/stm32f10x_fsmc.c ****   assert_param(IS_FSMC_HIZ_TIME(FSMC_PCCARDInitStruct->FSMC_IOSpaceTimingStruct->FSMC_HiZSetupTime)
 348:../Libraries/STM32F10x_StdPeriph_Driver/src/stm32f10x_fsmc.c ****   
 349:../Libraries/STM32F10x_StdPeriph_Driver/src/stm32f10x_fsmc.c ****   /* Set the PCR4 register value according to FSMC_PCCARDInitStruct parameters */
 350:../Libraries/STM32F10x_StdPeriph_Driver/src/stm32f10x_fsmc.c ****   FSMC_Bank4->PCR4 = (uint32_t)FSMC_PCCARDInitStruct->FSMC_Waitfeature |
 621              		.loc 1 350 0
 622 0398 4FF0A003 		mov	r3, #160
 623 039c CAF20003 		movt	r3, 40960
 624 03a0 7A68     		ldr	r2, [r7, #4]
 625 03a2 1168     		ldr	r1, [r2, #0]
 351:../Libraries/STM32F10x_StdPeriph_Driver/src/stm32f10x_fsmc.c ****                      FSMC_MemoryDataWidth_16b |  
 352:../Libraries/STM32F10x_StdPeriph_Driver/src/stm32f10x_fsmc.c ****                      (FSMC_PCCARDInitStruct->FSMC_TCLRSetupTime << 9) |
 626              		.loc 1 352 0
 627 03a4 7A68     		ldr	r2, [r7, #4]
 628 03a6 5268     		ldr	r2, [r2, #4]
 629 03a8 4FEA4222 		lsl	r2, r2, #9
 351:../Libraries/STM32F10x_StdPeriph_Driver/src/stm32f10x_fsmc.c ****                      FSMC_MemoryDataWidth_16b |  
 630              		.loc 1 351 0
 631 03ac 1143     		orrs	r1, r1, r2
 353:../Libraries/STM32F10x_StdPeriph_Driver/src/stm32f10x_fsmc.c ****                      (FSMC_PCCARDInitStruct->FSMC_TARSetupTime << 13);
 632              		.loc 1 353 0
 633 03ae 7A68     		ldr	r2, [r7, #4]
 634 03b0 9268     		ldr	r2, [r2, #8]
 635 03b2 4FEA4232 		lsl	r2, r2, #13
 352:../Libraries/STM32F10x_StdPeriph_Driver/src/stm32f10x_fsmc.c ****                      (FSMC_PCCARDInitStruct->FSMC_TCLRSetupTime << 9) |
 636              		.loc 1 352 0
 637 03b6 0A43     		orrs	r2, r2, r1
 638 03b8 42F01002 		orr	r2, r2, #16
 350:../Libraries/STM32F10x_StdPeriph_Driver/src/stm32f10x_fsmc.c ****   FSMC_Bank4->PCR4 = (uint32_t)FSMC_PCCARDInitStruct->FSMC_Waitfeature |
 639              		.loc 1 350 0
 640 03bc 1A60     		str	r2, [r3, #0]
 354:../Libraries/STM32F10x_StdPeriph_Driver/src/stm32f10x_fsmc.c ****             
 355:../Libraries/STM32F10x_StdPeriph_Driver/src/stm32f10x_fsmc.c ****   /* Set PMEM4 register value according to FSMC_CommonSpaceTimingStructure parameters */
 356:../Libraries/STM32F10x_StdPeriph_Driver/src/stm32f10x_fsmc.c ****   FSMC_Bank4->PMEM4 = (uint32_t)FSMC_PCCARDInitStruct->FSMC_CommonSpaceTimingStruct->FSMC_SetupTime
 641              		.loc 1 356 0
 642 03be 4FF0A003 		mov	r3, #160
 643 03c2 CAF20003 		movt	r3, 40960
 644 03c6 7A68     		ldr	r2, [r7, #4]
 645 03c8 D268     		ldr	r2, [r2, #12]
 646 03ca 1168     		ldr	r1, [r2, #0]
 357:../Libraries/STM32F10x_StdPeriph_Driver/src/stm32f10x_fsmc.c ****                       (FSMC_PCCARDInitStruct->FSMC_CommonSpaceTimingStruct->FSMC_WaitSetupTime << 8
 647              		.loc 1 357 0
 648 03cc 7A68     		ldr	r2, [r7, #4]
 649 03ce D268     		ldr	r2, [r2, #12]
 650 03d0 5268     		ldr	r2, [r2, #4]
 651 03d2 4FEA0222 		lsl	r2, r2, #8
 356:../Libraries/STM32F10x_StdPeriph_Driver/src/stm32f10x_fsmc.c ****   FSMC_Bank4->PMEM4 = (uint32_t)FSMC_PCCARDInitStruct->FSMC_CommonSpaceTimingStruct->FSMC_SetupTime
 652              		.loc 1 356 0
 653 03d6 1143     		orrs	r1, r1, r2
 358:../Libraries/STM32F10x_StdPeriph_Driver/src/stm32f10x_fsmc.c ****                       (FSMC_PCCARDInitStruct->FSMC_CommonSpaceTimingStruct->FSMC_HoldSetupTime << 1
 654              		.loc 1 358 0
 655 03d8 7A68     		ldr	r2, [r7, #4]
 656 03da D268     		ldr	r2, [r2, #12]
 657 03dc 9268     		ldr	r2, [r2, #8]
 658 03de 4FEA0242 		lsl	r2, r2, #16
 357:../Libraries/STM32F10x_StdPeriph_Driver/src/stm32f10x_fsmc.c ****                       (FSMC_PCCARDInitStruct->FSMC_CommonSpaceTimingStruct->FSMC_WaitSetupTime << 8
 659              		.loc 1 357 0
 660 03e2 1143     		orrs	r1, r1, r2
 359:../Libraries/STM32F10x_StdPeriph_Driver/src/stm32f10x_fsmc.c ****                       (FSMC_PCCARDInitStruct->FSMC_CommonSpaceTimingStruct->FSMC_HiZSetupTime << 24
 661              		.loc 1 359 0
 662 03e4 7A68     		ldr	r2, [r7, #4]
 663 03e6 D268     		ldr	r2, [r2, #12]
 664 03e8 D268     		ldr	r2, [r2, #12]
 665 03ea 4FEA0262 		lsl	r2, r2, #24
 358:../Libraries/STM32F10x_StdPeriph_Driver/src/stm32f10x_fsmc.c ****                       (FSMC_PCCARDInitStruct->FSMC_CommonSpaceTimingStruct->FSMC_HoldSetupTime << 1
 666              		.loc 1 358 0
 667 03ee 0A43     		orrs	r2, r2, r1
 356:../Libraries/STM32F10x_StdPeriph_Driver/src/stm32f10x_fsmc.c ****   FSMC_Bank4->PMEM4 = (uint32_t)FSMC_PCCARDInitStruct->FSMC_CommonSpaceTimingStruct->FSMC_SetupTime
 668              		.loc 1 356 0
 669 03f0 9A60     		str	r2, [r3, #8]
 360:../Libraries/STM32F10x_StdPeriph_Driver/src/stm32f10x_fsmc.c ****             
 361:../Libraries/STM32F10x_StdPeriph_Driver/src/stm32f10x_fsmc.c ****   /* Set PATT4 register value according to FSMC_AttributeSpaceTimingStructure parameters */
 362:../Libraries/STM32F10x_StdPeriph_Driver/src/stm32f10x_fsmc.c ****   FSMC_Bank4->PATT4 = (uint32_t)FSMC_PCCARDInitStruct->FSMC_AttributeSpaceTimingStruct->FSMC_SetupT
 670              		.loc 1 362 0
 671 03f2 4FF0A003 		mov	r3, #160
 672 03f6 CAF20003 		movt	r3, 40960
 673 03fa 7A68     		ldr	r2, [r7, #4]
 674 03fc 1269     		ldr	r2, [r2, #16]
 675 03fe 1168     		ldr	r1, [r2, #0]
 363:../Libraries/STM32F10x_StdPeriph_Driver/src/stm32f10x_fsmc.c ****                       (FSMC_PCCARDInitStruct->FSMC_AttributeSpaceTimingStruct->FSMC_WaitSetupTime <
 676              		.loc 1 363 0
 677 0400 7A68     		ldr	r2, [r7, #4]
 678 0402 1269     		ldr	r2, [r2, #16]
 679 0404 5268     		ldr	r2, [r2, #4]
 680 0406 4FEA0222 		lsl	r2, r2, #8
 362:../Libraries/STM32F10x_StdPeriph_Driver/src/stm32f10x_fsmc.c ****   FSMC_Bank4->PATT4 = (uint32_t)FSMC_PCCARDInitStruct->FSMC_AttributeSpaceTimingStruct->FSMC_SetupT
 681              		.loc 1 362 0
 682 040a 1143     		orrs	r1, r1, r2
 364:../Libraries/STM32F10x_StdPeriph_Driver/src/stm32f10x_fsmc.c ****                       (FSMC_PCCARDInitStruct->FSMC_AttributeSpaceTimingStruct->FSMC_HoldSetupTime <
 683              		.loc 1 364 0
 684 040c 7A68     		ldr	r2, [r7, #4]
 685 040e 1269     		ldr	r2, [r2, #16]
 686 0410 9268     		ldr	r2, [r2, #8]
 687 0412 4FEA0242 		lsl	r2, r2, #16
 363:../Libraries/STM32F10x_StdPeriph_Driver/src/stm32f10x_fsmc.c ****                       (FSMC_PCCARDInitStruct->FSMC_AttributeSpaceTimingStruct->FSMC_WaitSetupTime <
 688              		.loc 1 363 0
 689 0416 1143     		orrs	r1, r1, r2
 365:../Libraries/STM32F10x_StdPeriph_Driver/src/stm32f10x_fsmc.c ****                       (FSMC_PCCARDInitStruct->FSMC_AttributeSpaceTimingStruct->FSMC_HiZSetupTime <<
 690              		.loc 1 365 0
 691 0418 7A68     		ldr	r2, [r7, #4]
 692 041a 1269     		ldr	r2, [r2, #16]
 693 041c D268     		ldr	r2, [r2, #12]
 694 041e 4FEA0262 		lsl	r2, r2, #24
 364:../Libraries/STM32F10x_StdPeriph_Driver/src/stm32f10x_fsmc.c ****                       (FSMC_PCCARDInitStruct->FSMC_AttributeSpaceTimingStruct->FSMC_HoldSetupTime <
 695              		.loc 1 364 0
 696 0422 0A43     		orrs	r2, r2, r1
 362:../Libraries/STM32F10x_StdPeriph_Driver/src/stm32f10x_fsmc.c ****   FSMC_Bank4->PATT4 = (uint32_t)FSMC_PCCARDInitStruct->FSMC_AttributeSpaceTimingStruct->FSMC_SetupT
 697              		.loc 1 362 0
 698 0424 DA60     		str	r2, [r3, #12]
 366:../Libraries/STM32F10x_StdPeriph_Driver/src/stm32f10x_fsmc.c ****             
 367:../Libraries/STM32F10x_StdPeriph_Driver/src/stm32f10x_fsmc.c ****   /* Set PIO4 register value according to FSMC_IOSpaceTimingStructure parameters */
 368:../Libraries/STM32F10x_StdPeriph_Driver/src/stm32f10x_fsmc.c ****   FSMC_Bank4->PIO4 = (uint32_t)FSMC_PCCARDInitStruct->FSMC_IOSpaceTimingStruct->FSMC_SetupTime |
 699              		.loc 1 368 0
 700 0426 4FF0A003 		mov	r3, #160
 701 042a CAF20003 		movt	r3, 40960
 702 042e 7A68     		ldr	r2, [r7, #4]
 703 0430 5269     		ldr	r2, [r2, #20]
 704 0432 1168     		ldr	r1, [r2, #0]
 369:../Libraries/STM32F10x_StdPeriph_Driver/src/stm32f10x_fsmc.c ****                      (FSMC_PCCARDInitStruct->FSMC_IOSpaceTimingStruct->FSMC_WaitSetupTime << 8) |
 705              		.loc 1 369 0
 706 0434 7A68     		ldr	r2, [r7, #4]
 707 0436 5269     		ldr	r2, [r2, #20]
 708 0438 5268     		ldr	r2, [r2, #4]
 709 043a 4FEA0222 		lsl	r2, r2, #8
 368:../Libraries/STM32F10x_StdPeriph_Driver/src/stm32f10x_fsmc.c ****   FSMC_Bank4->PIO4 = (uint32_t)FSMC_PCCARDInitStruct->FSMC_IOSpaceTimingStruct->FSMC_SetupTime |
 710              		.loc 1 368 0
 711 043e 1143     		orrs	r1, r1, r2
 370:../Libraries/STM32F10x_StdPeriph_Driver/src/stm32f10x_fsmc.c ****                      (FSMC_PCCARDInitStruct->FSMC_IOSpaceTimingStruct->FSMC_HoldSetupTime << 16)|
 712              		.loc 1 370 0
 713 0440 7A68     		ldr	r2, [r7, #4]
 714 0442 5269     		ldr	r2, [r2, #20]
 715 0444 9268     		ldr	r2, [r2, #8]
 716 0446 4FEA0242 		lsl	r2, r2, #16
 369:../Libraries/STM32F10x_StdPeriph_Driver/src/stm32f10x_fsmc.c ****                      (FSMC_PCCARDInitStruct->FSMC_IOSpaceTimingStruct->FSMC_WaitSetupTime << 8) |
 717              		.loc 1 369 0
 718 044a 1143     		orrs	r1, r1, r2
 371:../Libraries/STM32F10x_StdPeriph_Driver/src/stm32f10x_fsmc.c ****                      (FSMC_PCCARDInitStruct->FSMC_IOSpaceTimingStruct->FSMC_HiZSetupTime << 24);   
 719              		.loc 1 371 0
 720 044c 7A68     		ldr	r2, [r7, #4]
 721 044e 5269     		ldr	r2, [r2, #20]
 722 0450 D268     		ldr	r2, [r2, #12]
 723 0452 4FEA0262 		lsl	r2, r2, #24
 370:../Libraries/STM32F10x_StdPeriph_Driver/src/stm32f10x_fsmc.c ****                      (FSMC_PCCARDInitStruct->FSMC_IOSpaceTimingStruct->FSMC_HoldSetupTime << 16)|
 724              		.loc 1 370 0
 725 0456 0A43     		orrs	r2, r2, r1
 368:../Libraries/STM32F10x_StdPeriph_Driver/src/stm32f10x_fsmc.c ****   FSMC_Bank4->PIO4 = (uint32_t)FSMC_PCCARDInitStruct->FSMC_IOSpaceTimingStruct->FSMC_SetupTime |
 726              		.loc 1 368 0
 727 0458 1A61     		str	r2, [r3, #16]
 372:../Libraries/STM32F10x_StdPeriph_Driver/src/stm32f10x_fsmc.c **** }
 728              		.loc 1 372 0
 729 045a 07F10C07 		add	r7, r7, #12
 730 045e BD46     		mov	sp, r7
 731 0460 80BC     		pop	{r7}
 732 0462 7047     		bx	lr
 733              		.cfi_endproc
 734              	.LFE34:
 736              		.align	2
 737              		.global	FSMC_NORSRAMStructInit
 738              		.thumb
 739              		.thumb_func
 741              	FSMC_NORSRAMStructInit:
 742              	.LFB35:
 373:../Libraries/STM32F10x_StdPeriph_Driver/src/stm32f10x_fsmc.c **** 
 374:../Libraries/STM32F10x_StdPeriph_Driver/src/stm32f10x_fsmc.c **** /**
 375:../Libraries/STM32F10x_StdPeriph_Driver/src/stm32f10x_fsmc.c ****   * @brief  Fills each FSMC_NORSRAMInitStruct member with its default value.
 376:../Libraries/STM32F10x_StdPeriph_Driver/src/stm32f10x_fsmc.c ****   * @param  FSMC_NORSRAMInitStruct: pointer to a FSMC_NORSRAMInitTypeDef 
 377:../Libraries/STM32F10x_StdPeriph_Driver/src/stm32f10x_fsmc.c ****   *         structure which will be initialized.
 378:../Libraries/STM32F10x_StdPeriph_Driver/src/stm32f10x_fsmc.c ****   * @retval None
 379:../Libraries/STM32F10x_StdPeriph_Driver/src/stm32f10x_fsmc.c ****   */
 380:../Libraries/STM32F10x_StdPeriph_Driver/src/stm32f10x_fsmc.c **** void FSMC_NORSRAMStructInit(FSMC_NORSRAMInitTypeDef* FSMC_NORSRAMInitStruct)
 381:../Libraries/STM32F10x_StdPeriph_Driver/src/stm32f10x_fsmc.c **** {  
 743              		.loc 1 381 0
 744              		.cfi_startproc
 745              		@ args = 0, pretend = 0, frame = 8
 746              		@ frame_needed = 1, uses_anonymous_args = 0
 747              		@ link register save eliminated.
 748 0464 80B4     		push	{r7}
 749              	.LCFI17:
 750              		.cfi_def_cfa_offset 4
 751              		.cfi_offset 7, -4
 752 0466 83B0     		sub	sp, sp, #12
 753              	.LCFI18:
 754              		.cfi_def_cfa_offset 16
 755 0468 00AF     		add	r7, sp, #0
 756              	.LCFI19:
 757              		.cfi_def_cfa_register 7
 758 046a 7860     		str	r0, [r7, #4]
 382:../Libraries/STM32F10x_StdPeriph_Driver/src/stm32f10x_fsmc.c ****   /* Reset NOR/SRAM Init structure parameters values */
 383:../Libraries/STM32F10x_StdPeriph_Driver/src/stm32f10x_fsmc.c ****   FSMC_NORSRAMInitStruct->FSMC_Bank = FSMC_Bank1_NORSRAM1;
 759              		.loc 1 383 0
 760 046c 7B68     		ldr	r3, [r7, #4]
 761 046e 4FF00002 		mov	r2, #0
 762 0472 1A60     		str	r2, [r3, #0]
 384:../Libraries/STM32F10x_StdPeriph_Driver/src/stm32f10x_fsmc.c ****   FSMC_NORSRAMInitStruct->FSMC_DataAddressMux = FSMC_DataAddressMux_Enable;
 763              		.loc 1 384 0
 764 0474 7B68     		ldr	r3, [r7, #4]
 765 0476 4FF00202 		mov	r2, #2
 766 047a 5A60     		str	r2, [r3, #4]
 385:../Libraries/STM32F10x_StdPeriph_Driver/src/stm32f10x_fsmc.c ****   FSMC_NORSRAMInitStruct->FSMC_MemoryType = FSMC_MemoryType_SRAM;
 767              		.loc 1 385 0
 768 047c 7B68     		ldr	r3, [r7, #4]
 769 047e 4FF00002 		mov	r2, #0
 770 0482 9A60     		str	r2, [r3, #8]
 386:../Libraries/STM32F10x_StdPeriph_Driver/src/stm32f10x_fsmc.c ****   FSMC_NORSRAMInitStruct->FSMC_MemoryDataWidth = FSMC_MemoryDataWidth_8b;
 771              		.loc 1 386 0
 772 0484 7B68     		ldr	r3, [r7, #4]
 773 0486 4FF00002 		mov	r2, #0
 774 048a DA60     		str	r2, [r3, #12]
 387:../Libraries/STM32F10x_StdPeriph_Driver/src/stm32f10x_fsmc.c ****   FSMC_NORSRAMInitStruct->FSMC_BurstAccessMode = FSMC_BurstAccessMode_Disable;
 775              		.loc 1 387 0
 776 048c 7B68     		ldr	r3, [r7, #4]
 777 048e 4FF00002 		mov	r2, #0
 778 0492 1A61     		str	r2, [r3, #16]
 388:../Libraries/STM32F10x_StdPeriph_Driver/src/stm32f10x_fsmc.c ****   FSMC_NORSRAMInitStruct->FSMC_AsynchronousWait = FSMC_AsynchronousWait_Disable;
 779              		.loc 1 388 0
 780 0494 7B68     		ldr	r3, [r7, #4]
 781 0496 4FF00002 		mov	r2, #0
 782 049a 5A61     		str	r2, [r3, #20]
 389:../Libraries/STM32F10x_StdPeriph_Driver/src/stm32f10x_fsmc.c ****   FSMC_NORSRAMInitStruct->FSMC_WaitSignalPolarity = FSMC_WaitSignalPolarity_Low;
 783              		.loc 1 389 0
 784 049c 7B68     		ldr	r3, [r7, #4]
 785 049e 4FF00002 		mov	r2, #0
 786 04a2 9A61     		str	r2, [r3, #24]
 390:../Libraries/STM32F10x_StdPeriph_Driver/src/stm32f10x_fsmc.c ****   FSMC_NORSRAMInitStruct->FSMC_WrapMode = FSMC_WrapMode_Disable;
 787              		.loc 1 390 0
 788 04a4 7B68     		ldr	r3, [r7, #4]
 789 04a6 4FF00002 		mov	r2, #0
 790 04aa DA61     		str	r2, [r3, #28]
 391:../Libraries/STM32F10x_StdPeriph_Driver/src/stm32f10x_fsmc.c ****   FSMC_NORSRAMInitStruct->FSMC_WaitSignalActive = FSMC_WaitSignalActive_BeforeWaitState;
 791              		.loc 1 391 0
 792 04ac 7B68     		ldr	r3, [r7, #4]
 793 04ae 4FF00002 		mov	r2, #0
 794 04b2 1A62     		str	r2, [r3, #32]
 392:../Libraries/STM32F10x_StdPeriph_Driver/src/stm32f10x_fsmc.c ****   FSMC_NORSRAMInitStruct->FSMC_WriteOperation = FSMC_WriteOperation_Enable;
 795              		.loc 1 392 0
 796 04b4 7B68     		ldr	r3, [r7, #4]
 797 04b6 4FF48052 		mov	r2, #4096
 798 04ba 5A62     		str	r2, [r3, #36]
 393:../Libraries/STM32F10x_StdPeriph_Driver/src/stm32f10x_fsmc.c ****   FSMC_NORSRAMInitStruct->FSMC_WaitSignal = FSMC_WaitSignal_Enable;
 799              		.loc 1 393 0
 800 04bc 7B68     		ldr	r3, [r7, #4]
 801 04be 4FF40052 		mov	r2, #8192
 802 04c2 9A62     		str	r2, [r3, #40]
 394:../Libraries/STM32F10x_StdPeriph_Driver/src/stm32f10x_fsmc.c ****   FSMC_NORSRAMInitStruct->FSMC_ExtendedMode = FSMC_ExtendedMode_Disable;
 803              		.loc 1 394 0
 804 04c4 7B68     		ldr	r3, [r7, #4]
 805 04c6 4FF00002 		mov	r2, #0
 806 04ca DA62     		str	r2, [r3, #44]
 395:../Libraries/STM32F10x_StdPeriph_Driver/src/stm32f10x_fsmc.c ****   FSMC_NORSRAMInitStruct->FSMC_WriteBurst = FSMC_WriteBurst_Disable;
 807              		.loc 1 395 0
 808 04cc 7B68     		ldr	r3, [r7, #4]
 809 04ce 4FF00002 		mov	r2, #0
 810 04d2 1A63     		str	r2, [r3, #48]
 396:../Libraries/STM32F10x_StdPeriph_Driver/src/stm32f10x_fsmc.c ****   FSMC_NORSRAMInitStruct->FSMC_ReadWriteTimingStruct->FSMC_AddressSetupTime = 0xF;
 811              		.loc 1 396 0
 812 04d4 7B68     		ldr	r3, [r7, #4]
 813 04d6 5B6B     		ldr	r3, [r3, #52]
 814 04d8 4FF00F02 		mov	r2, #15
 815 04dc 1A60     		str	r2, [r3, #0]
 397:../Libraries/STM32F10x_StdPeriph_Driver/src/stm32f10x_fsmc.c ****   FSMC_NORSRAMInitStruct->FSMC_ReadWriteTimingStruct->FSMC_AddressHoldTime = 0xF;
 816              		.loc 1 397 0
 817 04de 7B68     		ldr	r3, [r7, #4]
 818 04e0 5B6B     		ldr	r3, [r3, #52]
 819 04e2 4FF00F02 		mov	r2, #15
 820 04e6 5A60     		str	r2, [r3, #4]
 398:../Libraries/STM32F10x_StdPeriph_Driver/src/stm32f10x_fsmc.c ****   FSMC_NORSRAMInitStruct->FSMC_ReadWriteTimingStruct->FSMC_DataSetupTime = 0xFF;
 821              		.loc 1 398 0
 822 04e8 7B68     		ldr	r3, [r7, #4]
 823 04ea 5B6B     		ldr	r3, [r3, #52]
 824 04ec 4FF0FF02 		mov	r2, #255
 825 04f0 9A60     		str	r2, [r3, #8]
 399:../Libraries/STM32F10x_StdPeriph_Driver/src/stm32f10x_fsmc.c ****   FSMC_NORSRAMInitStruct->FSMC_ReadWriteTimingStruct->FSMC_BusTurnAroundDuration = 0xF;
 826              		.loc 1 399 0
 827 04f2 7B68     		ldr	r3, [r7, #4]
 828 04f4 5B6B     		ldr	r3, [r3, #52]
 829 04f6 4FF00F02 		mov	r2, #15
 830 04fa DA60     		str	r2, [r3, #12]
 400:../Libraries/STM32F10x_StdPeriph_Driver/src/stm32f10x_fsmc.c ****   FSMC_NORSRAMInitStruct->FSMC_ReadWriteTimingStruct->FSMC_CLKDivision = 0xF;
 831              		.loc 1 400 0
 832 04fc 7B68     		ldr	r3, [r7, #4]
 833 04fe 5B6B     		ldr	r3, [r3, #52]
 834 0500 4FF00F02 		mov	r2, #15
 835 0504 1A61     		str	r2, [r3, #16]
 401:../Libraries/STM32F10x_StdPeriph_Driver/src/stm32f10x_fsmc.c ****   FSMC_NORSRAMInitStruct->FSMC_ReadWriteTimingStruct->FSMC_DataLatency = 0xF;
 836              		.loc 1 401 0
 837 0506 7B68     		ldr	r3, [r7, #4]
 838 0508 5B6B     		ldr	r3, [r3, #52]
 839 050a 4FF00F02 		mov	r2, #15
 840 050e 5A61     		str	r2, [r3, #20]
 402:../Libraries/STM32F10x_StdPeriph_Driver/src/stm32f10x_fsmc.c ****   FSMC_NORSRAMInitStruct->FSMC_ReadWriteTimingStruct->FSMC_AccessMode = FSMC_AccessMode_A; 
 841              		.loc 1 402 0
 842 0510 7B68     		ldr	r3, [r7, #4]
 843 0512 5B6B     		ldr	r3, [r3, #52]
 844 0514 4FF00002 		mov	r2, #0
 845 0518 9A61     		str	r2, [r3, #24]
 403:../Libraries/STM32F10x_StdPeriph_Driver/src/stm32f10x_fsmc.c ****   FSMC_NORSRAMInitStruct->FSMC_WriteTimingStruct->FSMC_AddressSetupTime = 0xF;
 846              		.loc 1 403 0
 847 051a 7B68     		ldr	r3, [r7, #4]
 848 051c 9B6B     		ldr	r3, [r3, #56]
 849 051e 4FF00F02 		mov	r2, #15
 850 0522 1A60     		str	r2, [r3, #0]
 404:../Libraries/STM32F10x_StdPeriph_Driver/src/stm32f10x_fsmc.c ****   FSMC_NORSRAMInitStruct->FSMC_WriteTimingStruct->FSMC_AddressHoldTime = 0xF;
 851              		.loc 1 404 0
 852 0524 7B68     		ldr	r3, [r7, #4]
 853 0526 9B6B     		ldr	r3, [r3, #56]
 854 0528 4FF00F02 		mov	r2, #15
 855 052c 5A60     		str	r2, [r3, #4]
 405:../Libraries/STM32F10x_StdPeriph_Driver/src/stm32f10x_fsmc.c ****   FSMC_NORSRAMInitStruct->FSMC_WriteTimingStruct->FSMC_DataSetupTime = 0xFF;
 856              		.loc 1 405 0
 857 052e 7B68     		ldr	r3, [r7, #4]
 858 0530 9B6B     		ldr	r3, [r3, #56]
 859 0532 4FF0FF02 		mov	r2, #255
 860 0536 9A60     		str	r2, [r3, #8]
 406:../Libraries/STM32F10x_StdPeriph_Driver/src/stm32f10x_fsmc.c ****   FSMC_NORSRAMInitStruct->FSMC_WriteTimingStruct->FSMC_BusTurnAroundDuration = 0xF;
 861              		.loc 1 406 0
 862 0538 7B68     		ldr	r3, [r7, #4]
 863 053a 9B6B     		ldr	r3, [r3, #56]
 864 053c 4FF00F02 		mov	r2, #15
 865 0540 DA60     		str	r2, [r3, #12]
 407:../Libraries/STM32F10x_StdPeriph_Driver/src/stm32f10x_fsmc.c ****   FSMC_NORSRAMInitStruct->FSMC_WriteTimingStruct->FSMC_CLKDivision = 0xF;
 866              		.loc 1 407 0
 867 0542 7B68     		ldr	r3, [r7, #4]
 868 0544 9B6B     		ldr	r3, [r3, #56]
 869 0546 4FF00F02 		mov	r2, #15
 870 054a 1A61     		str	r2, [r3, #16]
 408:../Libraries/STM32F10x_StdPeriph_Driver/src/stm32f10x_fsmc.c ****   FSMC_NORSRAMInitStruct->FSMC_WriteTimingStruct->FSMC_DataLatency = 0xF;
 871              		.loc 1 408 0
 872 054c 7B68     		ldr	r3, [r7, #4]
 873 054e 9B6B     		ldr	r3, [r3, #56]
 874 0550 4FF00F02 		mov	r2, #15
 875 0554 5A61     		str	r2, [r3, #20]
 409:../Libraries/STM32F10x_StdPeriph_Driver/src/stm32f10x_fsmc.c ****   FSMC_NORSRAMInitStruct->FSMC_WriteTimingStruct->FSMC_AccessMode = FSMC_AccessMode_A;
 876              		.loc 1 409 0
 877 0556 7B68     		ldr	r3, [r7, #4]
 878 0558 9B6B     		ldr	r3, [r3, #56]
 879 055a 4FF00002 		mov	r2, #0
 880 055e 9A61     		str	r2, [r3, #24]
 410:../Libraries/STM32F10x_StdPeriph_Driver/src/stm32f10x_fsmc.c **** }
 881              		.loc 1 410 0
 882 0560 07F10C07 		add	r7, r7, #12
 883 0564 BD46     		mov	sp, r7
 884 0566 80BC     		pop	{r7}
 885 0568 7047     		bx	lr
 886              		.cfi_endproc
 887              	.LFE35:
 889 056a 00BF     		.align	2
 890              		.global	FSMC_NANDStructInit
 891              		.thumb
 892              		.thumb_func
 894              	FSMC_NANDStructInit:
 895              	.LFB36:
 411:../Libraries/STM32F10x_StdPeriph_Driver/src/stm32f10x_fsmc.c **** 
 412:../Libraries/STM32F10x_StdPeriph_Driver/src/stm32f10x_fsmc.c **** /**
 413:../Libraries/STM32F10x_StdPeriph_Driver/src/stm32f10x_fsmc.c ****   * @brief  Fills each FSMC_NANDInitStruct member with its default value.
 414:../Libraries/STM32F10x_StdPeriph_Driver/src/stm32f10x_fsmc.c ****   * @param  FSMC_NANDInitStruct: pointer to a FSMC_NANDInitTypeDef 
 415:../Libraries/STM32F10x_StdPeriph_Driver/src/stm32f10x_fsmc.c ****   *         structure which will be initialized.
 416:../Libraries/STM32F10x_StdPeriph_Driver/src/stm32f10x_fsmc.c ****   * @retval None
 417:../Libraries/STM32F10x_StdPeriph_Driver/src/stm32f10x_fsmc.c ****   */
 418:../Libraries/STM32F10x_StdPeriph_Driver/src/stm32f10x_fsmc.c **** void FSMC_NANDStructInit(FSMC_NANDInitTypeDef* FSMC_NANDInitStruct)
 419:../Libraries/STM32F10x_StdPeriph_Driver/src/stm32f10x_fsmc.c **** { 
 896              		.loc 1 419 0
 897              		.cfi_startproc
 898              		@ args = 0, pretend = 0, frame = 8
 899              		@ frame_needed = 1, uses_anonymous_args = 0
 900              		@ link register save eliminated.
 901 056c 80B4     		push	{r7}
 902              	.LCFI20:
 903              		.cfi_def_cfa_offset 4
 904              		.cfi_offset 7, -4
 905 056e 83B0     		sub	sp, sp, #12
 906              	.LCFI21:
 907              		.cfi_def_cfa_offset 16
 908 0570 00AF     		add	r7, sp, #0
 909              	.LCFI22:
 910              		.cfi_def_cfa_register 7
 911 0572 7860     		str	r0, [r7, #4]
 420:../Libraries/STM32F10x_StdPeriph_Driver/src/stm32f10x_fsmc.c ****   /* Reset NAND Init structure parameters values */
 421:../Libraries/STM32F10x_StdPeriph_Driver/src/stm32f10x_fsmc.c ****   FSMC_NANDInitStruct->FSMC_Bank = FSMC_Bank2_NAND;
 912              		.loc 1 421 0
 913 0574 7B68     		ldr	r3, [r7, #4]
 914 0576 4FF01002 		mov	r2, #16
 915 057a 1A60     		str	r2, [r3, #0]
 422:../Libraries/STM32F10x_StdPeriph_Driver/src/stm32f10x_fsmc.c ****   FSMC_NANDInitStruct->FSMC_Waitfeature = FSMC_Waitfeature_Disable;
 916              		.loc 1 422 0
 917 057c 7B68     		ldr	r3, [r7, #4]
 918 057e 4FF00002 		mov	r2, #0
 919 0582 5A60     		str	r2, [r3, #4]
 423:../Libraries/STM32F10x_StdPeriph_Driver/src/stm32f10x_fsmc.c ****   FSMC_NANDInitStruct->FSMC_MemoryDataWidth = FSMC_MemoryDataWidth_8b;
 920              		.loc 1 423 0
 921 0584 7B68     		ldr	r3, [r7, #4]
 922 0586 4FF00002 		mov	r2, #0
 923 058a 9A60     		str	r2, [r3, #8]
 424:../Libraries/STM32F10x_StdPeriph_Driver/src/stm32f10x_fsmc.c ****   FSMC_NANDInitStruct->FSMC_ECC = FSMC_ECC_Disable;
 924              		.loc 1 424 0
 925 058c 7B68     		ldr	r3, [r7, #4]
 926 058e 4FF00002 		mov	r2, #0
 927 0592 DA60     		str	r2, [r3, #12]
 425:../Libraries/STM32F10x_StdPeriph_Driver/src/stm32f10x_fsmc.c ****   FSMC_NANDInitStruct->FSMC_ECCPageSize = FSMC_ECCPageSize_256Bytes;
 928              		.loc 1 425 0
 929 0594 7B68     		ldr	r3, [r7, #4]
 930 0596 4FF00002 		mov	r2, #0
 931 059a 1A61     		str	r2, [r3, #16]
 426:../Libraries/STM32F10x_StdPeriph_Driver/src/stm32f10x_fsmc.c ****   FSMC_NANDInitStruct->FSMC_TCLRSetupTime = 0x0;
 932              		.loc 1 426 0
 933 059c 7B68     		ldr	r3, [r7, #4]
 934 059e 4FF00002 		mov	r2, #0
 935 05a2 5A61     		str	r2, [r3, #20]
 427:../Libraries/STM32F10x_StdPeriph_Driver/src/stm32f10x_fsmc.c ****   FSMC_NANDInitStruct->FSMC_TARSetupTime = 0x0;
 936              		.loc 1 427 0
 937 05a4 7B68     		ldr	r3, [r7, #4]
 938 05a6 4FF00002 		mov	r2, #0
 939 05aa 9A61     		str	r2, [r3, #24]
 428:../Libraries/STM32F10x_StdPeriph_Driver/src/stm32f10x_fsmc.c ****   FSMC_NANDInitStruct->FSMC_CommonSpaceTimingStruct->FSMC_SetupTime = 0xFC;
 940              		.loc 1 428 0
 941 05ac 7B68     		ldr	r3, [r7, #4]
 942 05ae DB69     		ldr	r3, [r3, #28]
 943 05b0 4FF0FC02 		mov	r2, #252
 944 05b4 1A60     		str	r2, [r3, #0]
 429:../Libraries/STM32F10x_StdPeriph_Driver/src/stm32f10x_fsmc.c ****   FSMC_NANDInitStruct->FSMC_CommonSpaceTimingStruct->FSMC_WaitSetupTime = 0xFC;
 945              		.loc 1 429 0
 946 05b6 7B68     		ldr	r3, [r7, #4]
 947 05b8 DB69     		ldr	r3, [r3, #28]
 948 05ba 4FF0FC02 		mov	r2, #252
 949 05be 5A60     		str	r2, [r3, #4]
 430:../Libraries/STM32F10x_StdPeriph_Driver/src/stm32f10x_fsmc.c ****   FSMC_NANDInitStruct->FSMC_CommonSpaceTimingStruct->FSMC_HoldSetupTime = 0xFC;
 950              		.loc 1 430 0
 951 05c0 7B68     		ldr	r3, [r7, #4]
 952 05c2 DB69     		ldr	r3, [r3, #28]
 953 05c4 4FF0FC02 		mov	r2, #252
 954 05c8 9A60     		str	r2, [r3, #8]
 431:../Libraries/STM32F10x_StdPeriph_Driver/src/stm32f10x_fsmc.c ****   FSMC_NANDInitStruct->FSMC_CommonSpaceTimingStruct->FSMC_HiZSetupTime = 0xFC;
 955              		.loc 1 431 0
 956 05ca 7B68     		ldr	r3, [r7, #4]
 957 05cc DB69     		ldr	r3, [r3, #28]
 958 05ce 4FF0FC02 		mov	r2, #252
 959 05d2 DA60     		str	r2, [r3, #12]
 432:../Libraries/STM32F10x_StdPeriph_Driver/src/stm32f10x_fsmc.c ****   FSMC_NANDInitStruct->FSMC_AttributeSpaceTimingStruct->FSMC_SetupTime = 0xFC;
 960              		.loc 1 432 0
 961 05d4 7B68     		ldr	r3, [r7, #4]
 962 05d6 1B6A     		ldr	r3, [r3, #32]
 963 05d8 4FF0FC02 		mov	r2, #252
 964 05dc 1A60     		str	r2, [r3, #0]
 433:../Libraries/STM32F10x_StdPeriph_Driver/src/stm32f10x_fsmc.c ****   FSMC_NANDInitStruct->FSMC_AttributeSpaceTimingStruct->FSMC_WaitSetupTime = 0xFC;
 965              		.loc 1 433 0
 966 05de 7B68     		ldr	r3, [r7, #4]
 967 05e0 1B6A     		ldr	r3, [r3, #32]
 968 05e2 4FF0FC02 		mov	r2, #252
 969 05e6 5A60     		str	r2, [r3, #4]
 434:../Libraries/STM32F10x_StdPeriph_Driver/src/stm32f10x_fsmc.c ****   FSMC_NANDInitStruct->FSMC_AttributeSpaceTimingStruct->FSMC_HoldSetupTime = 0xFC;
 970              		.loc 1 434 0
 971 05e8 7B68     		ldr	r3, [r7, #4]
 972 05ea 1B6A     		ldr	r3, [r3, #32]
 973 05ec 4FF0FC02 		mov	r2, #252
 974 05f0 9A60     		str	r2, [r3, #8]
 435:../Libraries/STM32F10x_StdPeriph_Driver/src/stm32f10x_fsmc.c ****   FSMC_NANDInitStruct->FSMC_AttributeSpaceTimingStruct->FSMC_HiZSetupTime = 0xFC;	  
 975              		.loc 1 435 0
 976 05f2 7B68     		ldr	r3, [r7, #4]
 977 05f4 1B6A     		ldr	r3, [r3, #32]
 978 05f6 4FF0FC02 		mov	r2, #252
 979 05fa DA60     		str	r2, [r3, #12]
 436:../Libraries/STM32F10x_StdPeriph_Driver/src/stm32f10x_fsmc.c **** }
 980              		.loc 1 436 0
 981 05fc 07F10C07 		add	r7, r7, #12
 982 0600 BD46     		mov	sp, r7
 983 0602 80BC     		pop	{r7}
 984 0604 7047     		bx	lr
 985              		.cfi_endproc
 986              	.LFE36:
 988 0606 00BF     		.align	2
 989              		.global	FSMC_PCCARDStructInit
 990              		.thumb
 991              		.thumb_func
 993              	FSMC_PCCARDStructInit:
 994              	.LFB37:
 437:../Libraries/STM32F10x_StdPeriph_Driver/src/stm32f10x_fsmc.c **** 
 438:../Libraries/STM32F10x_StdPeriph_Driver/src/stm32f10x_fsmc.c **** /**
 439:../Libraries/STM32F10x_StdPeriph_Driver/src/stm32f10x_fsmc.c ****   * @brief  Fills each FSMC_PCCARDInitStruct member with its default value.
 440:../Libraries/STM32F10x_StdPeriph_Driver/src/stm32f10x_fsmc.c ****   * @param  FSMC_PCCARDInitStruct: pointer to a FSMC_PCCARDInitTypeDef 
 441:../Libraries/STM32F10x_StdPeriph_Driver/src/stm32f10x_fsmc.c ****   *         structure which will be initialized.
 442:../Libraries/STM32F10x_StdPeriph_Driver/src/stm32f10x_fsmc.c ****   * @retval None
 443:../Libraries/STM32F10x_StdPeriph_Driver/src/stm32f10x_fsmc.c ****   */
 444:../Libraries/STM32F10x_StdPeriph_Driver/src/stm32f10x_fsmc.c **** void FSMC_PCCARDStructInit(FSMC_PCCARDInitTypeDef* FSMC_PCCARDInitStruct)
 445:../Libraries/STM32F10x_StdPeriph_Driver/src/stm32f10x_fsmc.c **** {
 995              		.loc 1 445 0
 996              		.cfi_startproc
 997              		@ args = 0, pretend = 0, frame = 8
 998              		@ frame_needed = 1, uses_anonymous_args = 0
 999              		@ link register save eliminated.
 1000 0608 80B4     		push	{r7}
 1001              	.LCFI23:
 1002              		.cfi_def_cfa_offset 4
 1003              		.cfi_offset 7, -4
 1004 060a 83B0     		sub	sp, sp, #12
 1005              	.LCFI24:
 1006              		.cfi_def_cfa_offset 16
 1007 060c 00AF     		add	r7, sp, #0
 1008              	.LCFI25:
 1009              		.cfi_def_cfa_register 7
 1010 060e 7860     		str	r0, [r7, #4]
 446:../Libraries/STM32F10x_StdPeriph_Driver/src/stm32f10x_fsmc.c ****   /* Reset PCCARD Init structure parameters values */
 447:../Libraries/STM32F10x_StdPeriph_Driver/src/stm32f10x_fsmc.c ****   FSMC_PCCARDInitStruct->FSMC_Waitfeature = FSMC_Waitfeature_Disable;
 1011              		.loc 1 447 0
 1012 0610 7B68     		ldr	r3, [r7, #4]
 1013 0612 4FF00002 		mov	r2, #0
 1014 0616 1A60     		str	r2, [r3, #0]
 448:../Libraries/STM32F10x_StdPeriph_Driver/src/stm32f10x_fsmc.c ****   FSMC_PCCARDInitStruct->FSMC_TCLRSetupTime = 0x0;
 1015              		.loc 1 448 0
 1016 0618 7B68     		ldr	r3, [r7, #4]
 1017 061a 4FF00002 		mov	r2, #0
 1018 061e 5A60     		str	r2, [r3, #4]
 449:../Libraries/STM32F10x_StdPeriph_Driver/src/stm32f10x_fsmc.c ****   FSMC_PCCARDInitStruct->FSMC_TARSetupTime = 0x0;
 1019              		.loc 1 449 0
 1020 0620 7B68     		ldr	r3, [r7, #4]
 1021 0622 4FF00002 		mov	r2, #0
 1022 0626 9A60     		str	r2, [r3, #8]
 450:../Libraries/STM32F10x_StdPeriph_Driver/src/stm32f10x_fsmc.c ****   FSMC_PCCARDInitStruct->FSMC_CommonSpaceTimingStruct->FSMC_SetupTime = 0xFC;
 1023              		.loc 1 450 0
 1024 0628 7B68     		ldr	r3, [r7, #4]
 1025 062a DB68     		ldr	r3, [r3, #12]
 1026 062c 4FF0FC02 		mov	r2, #252
 1027 0630 1A60     		str	r2, [r3, #0]
 451:../Libraries/STM32F10x_StdPeriph_Driver/src/stm32f10x_fsmc.c ****   FSMC_PCCARDInitStruct->FSMC_CommonSpaceTimingStruct->FSMC_WaitSetupTime = 0xFC;
 1028              		.loc 1 451 0
 1029 0632 7B68     		ldr	r3, [r7, #4]
 1030 0634 DB68     		ldr	r3, [r3, #12]
 1031 0636 4FF0FC02 		mov	r2, #252
 1032 063a 5A60     		str	r2, [r3, #4]
 452:../Libraries/STM32F10x_StdPeriph_Driver/src/stm32f10x_fsmc.c ****   FSMC_PCCARDInitStruct->FSMC_CommonSpaceTimingStruct->FSMC_HoldSetupTime = 0xFC;
 1033              		.loc 1 452 0
 1034 063c 7B68     		ldr	r3, [r7, #4]
 1035 063e DB68     		ldr	r3, [r3, #12]
 1036 0640 4FF0FC02 		mov	r2, #252
 1037 0644 9A60     		str	r2, [r3, #8]
 453:../Libraries/STM32F10x_StdPeriph_Driver/src/stm32f10x_fsmc.c ****   FSMC_PCCARDInitStruct->FSMC_CommonSpaceTimingStruct->FSMC_HiZSetupTime = 0xFC;
 1038              		.loc 1 453 0
 1039 0646 7B68     		ldr	r3, [r7, #4]
 1040 0648 DB68     		ldr	r3, [r3, #12]
 1041 064a 4FF0FC02 		mov	r2, #252
 1042 064e DA60     		str	r2, [r3, #12]
 454:../Libraries/STM32F10x_StdPeriph_Driver/src/stm32f10x_fsmc.c ****   FSMC_PCCARDInitStruct->FSMC_AttributeSpaceTimingStruct->FSMC_SetupTime = 0xFC;
 1043              		.loc 1 454 0
 1044 0650 7B68     		ldr	r3, [r7, #4]
 1045 0652 1B69     		ldr	r3, [r3, #16]
 1046 0654 4FF0FC02 		mov	r2, #252
 1047 0658 1A60     		str	r2, [r3, #0]
 455:../Libraries/STM32F10x_StdPeriph_Driver/src/stm32f10x_fsmc.c ****   FSMC_PCCARDInitStruct->FSMC_AttributeSpaceTimingStruct->FSMC_WaitSetupTime = 0xFC;
 1048              		.loc 1 455 0
 1049 065a 7B68     		ldr	r3, [r7, #4]
 1050 065c 1B69     		ldr	r3, [r3, #16]
 1051 065e 4FF0FC02 		mov	r2, #252
 1052 0662 5A60     		str	r2, [r3, #4]
 456:../Libraries/STM32F10x_StdPeriph_Driver/src/stm32f10x_fsmc.c ****   FSMC_PCCARDInitStruct->FSMC_AttributeSpaceTimingStruct->FSMC_HoldSetupTime = 0xFC;
 1053              		.loc 1 456 0
 1054 0664 7B68     		ldr	r3, [r7, #4]
 1055 0666 1B69     		ldr	r3, [r3, #16]
 1056 0668 4FF0FC02 		mov	r2, #252
 1057 066c 9A60     		str	r2, [r3, #8]
 457:../Libraries/STM32F10x_StdPeriph_Driver/src/stm32f10x_fsmc.c ****   FSMC_PCCARDInitStruct->FSMC_AttributeSpaceTimingStruct->FSMC_HiZSetupTime = 0xFC;	
 1058              		.loc 1 457 0
 1059 066e 7B68     		ldr	r3, [r7, #4]
 1060 0670 1B69     		ldr	r3, [r3, #16]
 1061 0672 4FF0FC02 		mov	r2, #252
 1062 0676 DA60     		str	r2, [r3, #12]
 458:../Libraries/STM32F10x_StdPeriph_Driver/src/stm32f10x_fsmc.c ****   FSMC_PCCARDInitStruct->FSMC_IOSpaceTimingStruct->FSMC_SetupTime = 0xFC;
 1063              		.loc 1 458 0
 1064 0678 7B68     		ldr	r3, [r7, #4]
 1065 067a 5B69     		ldr	r3, [r3, #20]
 1066 067c 4FF0FC02 		mov	r2, #252
 1067 0680 1A60     		str	r2, [r3, #0]
 459:../Libraries/STM32F10x_StdPeriph_Driver/src/stm32f10x_fsmc.c ****   FSMC_PCCARDInitStruct->FSMC_IOSpaceTimingStruct->FSMC_WaitSetupTime = 0xFC;
 1068              		.loc 1 459 0
 1069 0682 7B68     		ldr	r3, [r7, #4]
 1070 0684 5B69     		ldr	r3, [r3, #20]
 1071 0686 4FF0FC02 		mov	r2, #252
 1072 068a 5A60     		str	r2, [r3, #4]
 460:../Libraries/STM32F10x_StdPeriph_Driver/src/stm32f10x_fsmc.c ****   FSMC_PCCARDInitStruct->FSMC_IOSpaceTimingStruct->FSMC_HoldSetupTime = 0xFC;
 1073              		.loc 1 460 0
 1074 068c 7B68     		ldr	r3, [r7, #4]
 1075 068e 5B69     		ldr	r3, [r3, #20]
 1076 0690 4FF0FC02 		mov	r2, #252
 1077 0694 9A60     		str	r2, [r3, #8]
 461:../Libraries/STM32F10x_StdPeriph_Driver/src/stm32f10x_fsmc.c ****   FSMC_PCCARDInitStruct->FSMC_IOSpaceTimingStruct->FSMC_HiZSetupTime = 0xFC;
 1078              		.loc 1 461 0
 1079 0696 7B68     		ldr	r3, [r7, #4]
 1080 0698 5B69     		ldr	r3, [r3, #20]
 1081 069a 4FF0FC02 		mov	r2, #252
 1082 069e DA60     		str	r2, [r3, #12]
 462:../Libraries/STM32F10x_StdPeriph_Driver/src/stm32f10x_fsmc.c **** }
 1083              		.loc 1 462 0
 1084 06a0 07F10C07 		add	r7, r7, #12
 1085 06a4 BD46     		mov	sp, r7
 1086 06a6 80BC     		pop	{r7}
 1087 06a8 7047     		bx	lr
 1088              		.cfi_endproc
 1089              	.LFE37:
 1091 06aa 00BF     		.align	2
 1092              		.global	FSMC_NORSRAMCmd
 1093              		.thumb
 1094              		.thumb_func
 1096              	FSMC_NORSRAMCmd:
 1097              	.LFB38:
 463:../Libraries/STM32F10x_StdPeriph_Driver/src/stm32f10x_fsmc.c **** 
 464:../Libraries/STM32F10x_StdPeriph_Driver/src/stm32f10x_fsmc.c **** /**
 465:../Libraries/STM32F10x_StdPeriph_Driver/src/stm32f10x_fsmc.c ****   * @brief  Enables or disables the specified NOR/SRAM Memory Bank.
 466:../Libraries/STM32F10x_StdPeriph_Driver/src/stm32f10x_fsmc.c ****   * @param  FSMC_Bank: specifies the FSMC Bank to be used
 467:../Libraries/STM32F10x_StdPeriph_Driver/src/stm32f10x_fsmc.c ****   *   This parameter can be one of the following values:
 468:../Libraries/STM32F10x_StdPeriph_Driver/src/stm32f10x_fsmc.c ****   *     @arg FSMC_Bank1_NORSRAM1: FSMC Bank1 NOR/SRAM1  
 469:../Libraries/STM32F10x_StdPeriph_Driver/src/stm32f10x_fsmc.c ****   *     @arg FSMC_Bank1_NORSRAM2: FSMC Bank1 NOR/SRAM2 
 470:../Libraries/STM32F10x_StdPeriph_Driver/src/stm32f10x_fsmc.c ****   *     @arg FSMC_Bank1_NORSRAM3: FSMC Bank1 NOR/SRAM3 
 471:../Libraries/STM32F10x_StdPeriph_Driver/src/stm32f10x_fsmc.c ****   *     @arg FSMC_Bank1_NORSRAM4: FSMC Bank1 NOR/SRAM4 
 472:../Libraries/STM32F10x_StdPeriph_Driver/src/stm32f10x_fsmc.c ****   * @param  NewState: new state of the FSMC_Bank. This parameter can be: ENABLE or DISABLE.
 473:../Libraries/STM32F10x_StdPeriph_Driver/src/stm32f10x_fsmc.c ****   * @retval None
 474:../Libraries/STM32F10x_StdPeriph_Driver/src/stm32f10x_fsmc.c ****   */
 475:../Libraries/STM32F10x_StdPeriph_Driver/src/stm32f10x_fsmc.c **** void FSMC_NORSRAMCmd(uint32_t FSMC_Bank, FunctionalState NewState)
 476:../Libraries/STM32F10x_StdPeriph_Driver/src/stm32f10x_fsmc.c **** {
 1098              		.loc 1 476 0
 1099              		.cfi_startproc
 1100              		@ args = 0, pretend = 0, frame = 8
 1101              		@ frame_needed = 1, uses_anonymous_args = 0
 1102              		@ link register save eliminated.
 1103 06ac 80B4     		push	{r7}
 1104              	.LCFI26:
 1105              		.cfi_def_cfa_offset 4
 1106              		.cfi_offset 7, -4
 1107 06ae 83B0     		sub	sp, sp, #12
 1108              	.LCFI27:
 1109              		.cfi_def_cfa_offset 16
 1110 06b0 00AF     		add	r7, sp, #0
 1111              	.LCFI28:
 1112              		.cfi_def_cfa_register 7
 1113 06b2 7860     		str	r0, [r7, #4]
 1114 06b4 0B46     		mov	r3, r1
 1115 06b6 FB70     		strb	r3, [r7, #3]
 477:../Libraries/STM32F10x_StdPeriph_Driver/src/stm32f10x_fsmc.c ****   assert_param(IS_FSMC_NORSRAM_BANK(FSMC_Bank));
 478:../Libraries/STM32F10x_StdPeriph_Driver/src/stm32f10x_fsmc.c ****   assert_param(IS_FUNCTIONAL_STATE(NewState));
 479:../Libraries/STM32F10x_StdPeriph_Driver/src/stm32f10x_fsmc.c ****   
 480:../Libraries/STM32F10x_StdPeriph_Driver/src/stm32f10x_fsmc.c ****   if (NewState != DISABLE)
 1116              		.loc 1 480 0
 1117 06b8 FB78     		ldrb	r3, [r7, #3]	@ zero_extendqisi2
 1118 06ba 002B     		cmp	r3, #0
 1119 06bc 0DD0     		beq	.L20
 481:../Libraries/STM32F10x_StdPeriph_Driver/src/stm32f10x_fsmc.c ****   {
 482:../Libraries/STM32F10x_StdPeriph_Driver/src/stm32f10x_fsmc.c ****     /* Enable the selected NOR/SRAM Bank by setting the PBKEN bit in the BCRx register */
 483:../Libraries/STM32F10x_StdPeriph_Driver/src/stm32f10x_fsmc.c ****     FSMC_Bank1->BTCR[FSMC_Bank] |= BCR_MBKEN_Set;
 1120              		.loc 1 483 0
 1121 06be 4FF02040 		mov	r0, #-1610612736
 1122 06c2 4FF02043 		mov	r3, #-1610612736
 1123 06c6 7A68     		ldr	r2, [r7, #4]
 1124 06c8 53F82230 		ldr	r3, [r3, r2, lsl #2]
 1125 06cc 43F00101 		orr	r1, r3, #1
 1126 06d0 7A68     		ldr	r2, [r7, #4]
 1127 06d2 0346     		mov	r3, r0
 1128 06d4 43F82210 		str	r1, [r3, r2, lsl #2]
 1129 06d8 0FE0     		b	.L19
 1130              	.L20:
 484:../Libraries/STM32F10x_StdPeriph_Driver/src/stm32f10x_fsmc.c ****   }
 485:../Libraries/STM32F10x_StdPeriph_Driver/src/stm32f10x_fsmc.c ****   else
 486:../Libraries/STM32F10x_StdPeriph_Driver/src/stm32f10x_fsmc.c ****   {
 487:../Libraries/STM32F10x_StdPeriph_Driver/src/stm32f10x_fsmc.c ****     /* Disable the selected NOR/SRAM Bank by clearing the PBKEN bit in the BCRx register */
 488:../Libraries/STM32F10x_StdPeriph_Driver/src/stm32f10x_fsmc.c ****     FSMC_Bank1->BTCR[FSMC_Bank] &= BCR_MBKEN_Reset;
 1131              		.loc 1 488 0
 1132 06da 4FF02040 		mov	r0, #-1610612736
 1133 06de 4FF02043 		mov	r3, #-1610612736
 1134 06e2 7A68     		ldr	r2, [r7, #4]
 1135 06e4 53F82220 		ldr	r2, [r3, r2, lsl #2]
 1136 06e8 4FF6FE73 		movw	r3, #65534
 1137 06ec C0F20F03 		movt	r3, 15
 1138 06f0 1340     		ands	r3, r3, r2
 1139 06f2 7968     		ldr	r1, [r7, #4]
 1140 06f4 0246     		mov	r2, r0
 1141 06f6 42F82130 		str	r3, [r2, r1, lsl #2]
 1142              	.L19:
 489:../Libraries/STM32F10x_StdPeriph_Driver/src/stm32f10x_fsmc.c ****   }
 490:../Libraries/STM32F10x_StdPeriph_Driver/src/stm32f10x_fsmc.c **** }
 1143              		.loc 1 490 0
 1144 06fa 07F10C07 		add	r7, r7, #12
 1145 06fe BD46     		mov	sp, r7
 1146 0700 80BC     		pop	{r7}
 1147 0702 7047     		bx	lr
 1148              		.cfi_endproc
 1149              	.LFE38:
 1151              		.align	2
 1152              		.global	FSMC_NANDCmd
 1153              		.thumb
 1154              		.thumb_func
 1156              	FSMC_NANDCmd:
 1157              	.LFB39:
 491:../Libraries/STM32F10x_StdPeriph_Driver/src/stm32f10x_fsmc.c **** 
 492:../Libraries/STM32F10x_StdPeriph_Driver/src/stm32f10x_fsmc.c **** /**
 493:../Libraries/STM32F10x_StdPeriph_Driver/src/stm32f10x_fsmc.c ****   * @brief  Enables or disables the specified NAND Memory Bank.
 494:../Libraries/STM32F10x_StdPeriph_Driver/src/stm32f10x_fsmc.c ****   * @param  FSMC_Bank: specifies the FSMC Bank to be used
 495:../Libraries/STM32F10x_StdPeriph_Driver/src/stm32f10x_fsmc.c ****   *   This parameter can be one of the following values:
 496:../Libraries/STM32F10x_StdPeriph_Driver/src/stm32f10x_fsmc.c ****   *     @arg FSMC_Bank2_NAND: FSMC Bank2 NAND 
 497:../Libraries/STM32F10x_StdPeriph_Driver/src/stm32f10x_fsmc.c ****   *     @arg FSMC_Bank3_NAND: FSMC Bank3 NAND
 498:../Libraries/STM32F10x_StdPeriph_Driver/src/stm32f10x_fsmc.c ****   * @param  NewState: new state of the FSMC_Bank. This parameter can be: ENABLE or DISABLE.
 499:../Libraries/STM32F10x_StdPeriph_Driver/src/stm32f10x_fsmc.c ****   * @retval None
 500:../Libraries/STM32F10x_StdPeriph_Driver/src/stm32f10x_fsmc.c ****   */
 501:../Libraries/STM32F10x_StdPeriph_Driver/src/stm32f10x_fsmc.c **** void FSMC_NANDCmd(uint32_t FSMC_Bank, FunctionalState NewState)
 502:../Libraries/STM32F10x_StdPeriph_Driver/src/stm32f10x_fsmc.c **** {
 1158              		.loc 1 502 0
 1159              		.cfi_startproc
 1160              		@ args = 0, pretend = 0, frame = 8
 1161              		@ frame_needed = 1, uses_anonymous_args = 0
 1162              		@ link register save eliminated.
 1163 0704 80B4     		push	{r7}
 1164              	.LCFI29:
 1165              		.cfi_def_cfa_offset 4
 1166              		.cfi_offset 7, -4
 1167 0706 83B0     		sub	sp, sp, #12
 1168              	.LCFI30:
 1169              		.cfi_def_cfa_offset 16
 1170 0708 00AF     		add	r7, sp, #0
 1171              	.LCFI31:
 1172              		.cfi_def_cfa_register 7
 1173 070a 7860     		str	r0, [r7, #4]
 1174 070c 0B46     		mov	r3, r1
 1175 070e FB70     		strb	r3, [r7, #3]
 503:../Libraries/STM32F10x_StdPeriph_Driver/src/stm32f10x_fsmc.c ****   assert_param(IS_FSMC_NAND_BANK(FSMC_Bank));
 504:../Libraries/STM32F10x_StdPeriph_Driver/src/stm32f10x_fsmc.c ****   assert_param(IS_FUNCTIONAL_STATE(NewState));
 505:../Libraries/STM32F10x_StdPeriph_Driver/src/stm32f10x_fsmc.c ****   
 506:../Libraries/STM32F10x_StdPeriph_Driver/src/stm32f10x_fsmc.c ****   if (NewState != DISABLE)
 1176              		.loc 1 506 0
 1177 0710 FB78     		ldrb	r3, [r7, #3]	@ zero_extendqisi2
 1178 0712 002B     		cmp	r3, #0
 1179 0714 1CD0     		beq	.L23
 507:../Libraries/STM32F10x_StdPeriph_Driver/src/stm32f10x_fsmc.c ****   {
 508:../Libraries/STM32F10x_StdPeriph_Driver/src/stm32f10x_fsmc.c ****     /* Enable the selected NAND Bank by setting the PBKEN bit in the PCRx register */
 509:../Libraries/STM32F10x_StdPeriph_Driver/src/stm32f10x_fsmc.c ****     if(FSMC_Bank == FSMC_Bank2_NAND)
 1180              		.loc 1 509 0
 1181 0716 7B68     		ldr	r3, [r7, #4]
 1182 0718 102B     		cmp	r3, #16
 1183 071a 0CD1     		bne	.L24
 510:../Libraries/STM32F10x_StdPeriph_Driver/src/stm32f10x_fsmc.c ****     {
 511:../Libraries/STM32F10x_StdPeriph_Driver/src/stm32f10x_fsmc.c ****       FSMC_Bank2->PCR2 |= PCR_PBKEN_Set;
 1184              		.loc 1 511 0
 1185 071c 4FF06003 		mov	r3, #96
 1186 0720 CAF20003 		movt	r3, 40960
 1187 0724 4FF06002 		mov	r2, #96
 1188 0728 CAF20002 		movt	r2, 40960
 1189 072c 1268     		ldr	r2, [r2, #0]
 1190 072e 42F00402 		orr	r2, r2, #4
 1191 0732 1A60     		str	r2, [r3, #0]
 1192 0734 2EE0     		b	.L22
 1193              	.L24:
 512:../Libraries/STM32F10x_StdPeriph_Driver/src/stm32f10x_fsmc.c ****     }
 513:../Libraries/STM32F10x_StdPeriph_Driver/src/stm32f10x_fsmc.c ****     else
 514:../Libraries/STM32F10x_StdPeriph_Driver/src/stm32f10x_fsmc.c ****     {
 515:../Libraries/STM32F10x_StdPeriph_Driver/src/stm32f10x_fsmc.c ****       FSMC_Bank3->PCR3 |= PCR_PBKEN_Set;
 1194              		.loc 1 515 0
 1195 0736 4FF08003 		mov	r3, #128
 1196 073a CAF20003 		movt	r3, 40960
 1197 073e 4FF08002 		mov	r2, #128
 1198 0742 CAF20002 		movt	r2, 40960
 1199 0746 1268     		ldr	r2, [r2, #0]
 1200 0748 42F00402 		orr	r2, r2, #4
 1201 074c 1A60     		str	r2, [r3, #0]
 1202 074e 21E0     		b	.L22
 1203              	.L23:
 516:../Libraries/STM32F10x_StdPeriph_Driver/src/stm32f10x_fsmc.c ****     }
 517:../Libraries/STM32F10x_StdPeriph_Driver/src/stm32f10x_fsmc.c ****   }
 518:../Libraries/STM32F10x_StdPeriph_Driver/src/stm32f10x_fsmc.c ****   else
 519:../Libraries/STM32F10x_StdPeriph_Driver/src/stm32f10x_fsmc.c ****   {
 520:../Libraries/STM32F10x_StdPeriph_Driver/src/stm32f10x_fsmc.c ****     /* Disable the selected NAND Bank by clearing the PBKEN bit in the PCRx register */
 521:../Libraries/STM32F10x_StdPeriph_Driver/src/stm32f10x_fsmc.c ****     if(FSMC_Bank == FSMC_Bank2_NAND)
 1204              		.loc 1 521 0
 1205 0750 7B68     		ldr	r3, [r7, #4]
 1206 0752 102B     		cmp	r3, #16
 1207 0754 0FD1     		bne	.L26
 522:../Libraries/STM32F10x_StdPeriph_Driver/src/stm32f10x_fsmc.c ****     {
 523:../Libraries/STM32F10x_StdPeriph_Driver/src/stm32f10x_fsmc.c ****       FSMC_Bank2->PCR2 &= PCR_PBKEN_Reset;
 1208              		.loc 1 523 0
 1209 0756 4FF06002 		mov	r2, #96
 1210 075a CAF20002 		movt	r2, 40960
 1211 075e 4FF06003 		mov	r3, #96
 1212 0762 CAF20003 		movt	r3, 40960
 1213 0766 1968     		ldr	r1, [r3, #0]
 1214 0768 4FF6FB73 		movw	r3, #65531
 1215 076c C0F20F03 		movt	r3, 15
 1216 0770 0B40     		ands	r3, r3, r1
 1217 0772 1360     		str	r3, [r2, #0]
 1218 0774 0EE0     		b	.L22
 1219              	.L26:
 524:../Libraries/STM32F10x_StdPeriph_Driver/src/stm32f10x_fsmc.c ****     }
 525:../Libraries/STM32F10x_StdPeriph_Driver/src/stm32f10x_fsmc.c ****     else
 526:../Libraries/STM32F10x_StdPeriph_Driver/src/stm32f10x_fsmc.c ****     {
 527:../Libraries/STM32F10x_StdPeriph_Driver/src/stm32f10x_fsmc.c ****       FSMC_Bank3->PCR3 &= PCR_PBKEN_Reset;
 1220              		.loc 1 527 0
 1221 0776 4FF08002 		mov	r2, #128
 1222 077a CAF20002 		movt	r2, 40960
 1223 077e 4FF08003 		mov	r3, #128
 1224 0782 CAF20003 		movt	r3, 40960
 1225 0786 1968     		ldr	r1, [r3, #0]
 1226 0788 4FF6FB73 		movw	r3, #65531
 1227 078c C0F20F03 		movt	r3, 15
 1228 0790 0B40     		ands	r3, r3, r1
 1229 0792 1360     		str	r3, [r2, #0]
 1230              	.L22:
 528:../Libraries/STM32F10x_StdPeriph_Driver/src/stm32f10x_fsmc.c ****     }
 529:../Libraries/STM32F10x_StdPeriph_Driver/src/stm32f10x_fsmc.c ****   }
 530:../Libraries/STM32F10x_StdPeriph_Driver/src/stm32f10x_fsmc.c **** }
 1231              		.loc 1 530 0
 1232 0794 07F10C07 		add	r7, r7, #12
 1233 0798 BD46     		mov	sp, r7
 1234 079a 80BC     		pop	{r7}
 1235 079c 7047     		bx	lr
 1236              		.cfi_endproc
 1237              	.LFE39:
 1239 079e 00BF     		.align	2
 1240              		.global	FSMC_PCCARDCmd
 1241              		.thumb
 1242              		.thumb_func
 1244              	FSMC_PCCARDCmd:
 1245              	.LFB40:
 531:../Libraries/STM32F10x_StdPeriph_Driver/src/stm32f10x_fsmc.c **** 
 532:../Libraries/STM32F10x_StdPeriph_Driver/src/stm32f10x_fsmc.c **** /**
 533:../Libraries/STM32F10x_StdPeriph_Driver/src/stm32f10x_fsmc.c ****   * @brief  Enables or disables the PCCARD Memory Bank.
 534:../Libraries/STM32F10x_StdPeriph_Driver/src/stm32f10x_fsmc.c ****   * @param  NewState: new state of the PCCARD Memory Bank.  
 535:../Libraries/STM32F10x_StdPeriph_Driver/src/stm32f10x_fsmc.c ****   *   This parameter can be: ENABLE or DISABLE.
 536:../Libraries/STM32F10x_StdPeriph_Driver/src/stm32f10x_fsmc.c ****   * @retval None
 537:../Libraries/STM32F10x_StdPeriph_Driver/src/stm32f10x_fsmc.c ****   */
 538:../Libraries/STM32F10x_StdPeriph_Driver/src/stm32f10x_fsmc.c **** void FSMC_PCCARDCmd(FunctionalState NewState)
 539:../Libraries/STM32F10x_StdPeriph_Driver/src/stm32f10x_fsmc.c **** {
 1246              		.loc 1 539 0
 1247              		.cfi_startproc
 1248              		@ args = 0, pretend = 0, frame = 8
 1249              		@ frame_needed = 1, uses_anonymous_args = 0
 1250              		@ link register save eliminated.
 1251 07a0 80B4     		push	{r7}
 1252              	.LCFI32:
 1253              		.cfi_def_cfa_offset 4
 1254              		.cfi_offset 7, -4
 1255 07a2 83B0     		sub	sp, sp, #12
 1256              	.LCFI33:
 1257              		.cfi_def_cfa_offset 16
 1258 07a4 00AF     		add	r7, sp, #0
 1259              	.LCFI34:
 1260              		.cfi_def_cfa_register 7
 1261 07a6 0346     		mov	r3, r0
 1262 07a8 FB71     		strb	r3, [r7, #7]
 540:../Libraries/STM32F10x_StdPeriph_Driver/src/stm32f10x_fsmc.c ****   assert_param(IS_FUNCTIONAL_STATE(NewState));
 541:../Libraries/STM32F10x_StdPeriph_Driver/src/stm32f10x_fsmc.c ****   
 542:../Libraries/STM32F10x_StdPeriph_Driver/src/stm32f10x_fsmc.c ****   if (NewState != DISABLE)
 1263              		.loc 1 542 0
 1264 07aa FB79     		ldrb	r3, [r7, #7]	@ zero_extendqisi2
 1265 07ac 002B     		cmp	r3, #0
 1266 07ae 0CD0     		beq	.L28
 543:../Libraries/STM32F10x_StdPeriph_Driver/src/stm32f10x_fsmc.c ****   {
 544:../Libraries/STM32F10x_StdPeriph_Driver/src/stm32f10x_fsmc.c ****     /* Enable the PCCARD Bank by setting the PBKEN bit in the PCR4 register */
 545:../Libraries/STM32F10x_StdPeriph_Driver/src/stm32f10x_fsmc.c ****     FSMC_Bank4->PCR4 |= PCR_PBKEN_Set;
 1267              		.loc 1 545 0
 1268 07b0 4FF0A003 		mov	r3, #160
 1269 07b4 CAF20003 		movt	r3, 40960
 1270 07b8 4FF0A002 		mov	r2, #160
 1271 07bc CAF20002 		movt	r2, 40960
 1272 07c0 1268     		ldr	r2, [r2, #0]
 1273 07c2 42F00402 		orr	r2, r2, #4
 1274 07c6 1A60     		str	r2, [r3, #0]
 1275 07c8 0EE0     		b	.L27
 1276              	.L28:
 546:../Libraries/STM32F10x_StdPeriph_Driver/src/stm32f10x_fsmc.c ****   }
 547:../Libraries/STM32F10x_StdPeriph_Driver/src/stm32f10x_fsmc.c ****   else
 548:../Libraries/STM32F10x_StdPeriph_Driver/src/stm32f10x_fsmc.c ****   {
 549:../Libraries/STM32F10x_StdPeriph_Driver/src/stm32f10x_fsmc.c ****     /* Disable the PCCARD Bank by clearing the PBKEN bit in the PCR4 register */
 550:../Libraries/STM32F10x_StdPeriph_Driver/src/stm32f10x_fsmc.c ****     FSMC_Bank4->PCR4 &= PCR_PBKEN_Reset;
 1277              		.loc 1 550 0
 1278 07ca 4FF0A002 		mov	r2, #160
 1279 07ce CAF20002 		movt	r2, 40960
 1280 07d2 4FF0A003 		mov	r3, #160
 1281 07d6 CAF20003 		movt	r3, 40960
 1282 07da 1968     		ldr	r1, [r3, #0]
 1283 07dc 4FF6FB73 		movw	r3, #65531
 1284 07e0 C0F20F03 		movt	r3, 15
 1285 07e4 0B40     		ands	r3, r3, r1
 1286 07e6 1360     		str	r3, [r2, #0]
 1287              	.L27:
 551:../Libraries/STM32F10x_StdPeriph_Driver/src/stm32f10x_fsmc.c ****   }
 552:../Libraries/STM32F10x_StdPeriph_Driver/src/stm32f10x_fsmc.c **** }
 1288              		.loc 1 552 0
 1289 07e8 07F10C07 		add	r7, r7, #12
 1290 07ec BD46     		mov	sp, r7
 1291 07ee 80BC     		pop	{r7}
 1292 07f0 7047     		bx	lr
 1293              		.cfi_endproc
 1294              	.LFE40:
 1296 07f2 00BF     		.align	2
 1297              		.global	FSMC_NANDECCCmd
 1298              		.thumb
 1299              		.thumb_func
 1301              	FSMC_NANDECCCmd:
 1302              	.LFB41:
 553:../Libraries/STM32F10x_StdPeriph_Driver/src/stm32f10x_fsmc.c **** 
 554:../Libraries/STM32F10x_StdPeriph_Driver/src/stm32f10x_fsmc.c **** /**
 555:../Libraries/STM32F10x_StdPeriph_Driver/src/stm32f10x_fsmc.c ****   * @brief  Enables or disables the FSMC NAND ECC feature.
 556:../Libraries/STM32F10x_StdPeriph_Driver/src/stm32f10x_fsmc.c ****   * @param  FSMC_Bank: specifies the FSMC Bank to be used
 557:../Libraries/STM32F10x_StdPeriph_Driver/src/stm32f10x_fsmc.c ****   *   This parameter can be one of the following values:
 558:../Libraries/STM32F10x_StdPeriph_Driver/src/stm32f10x_fsmc.c ****   *     @arg FSMC_Bank2_NAND: FSMC Bank2 NAND 
 559:../Libraries/STM32F10x_StdPeriph_Driver/src/stm32f10x_fsmc.c ****   *     @arg FSMC_Bank3_NAND: FSMC Bank3 NAND
 560:../Libraries/STM32F10x_StdPeriph_Driver/src/stm32f10x_fsmc.c ****   * @param  NewState: new state of the FSMC NAND ECC feature.  
 561:../Libraries/STM32F10x_StdPeriph_Driver/src/stm32f10x_fsmc.c ****   *   This parameter can be: ENABLE or DISABLE.
 562:../Libraries/STM32F10x_StdPeriph_Driver/src/stm32f10x_fsmc.c ****   * @retval None
 563:../Libraries/STM32F10x_StdPeriph_Driver/src/stm32f10x_fsmc.c ****   */
 564:../Libraries/STM32F10x_StdPeriph_Driver/src/stm32f10x_fsmc.c **** void FSMC_NANDECCCmd(uint32_t FSMC_Bank, FunctionalState NewState)
 565:../Libraries/STM32F10x_StdPeriph_Driver/src/stm32f10x_fsmc.c **** {
 1303              		.loc 1 565 0
 1304              		.cfi_startproc
 1305              		@ args = 0, pretend = 0, frame = 8
 1306              		@ frame_needed = 1, uses_anonymous_args = 0
 1307              		@ link register save eliminated.
 1308 07f4 80B4     		push	{r7}
 1309              	.LCFI35:
 1310              		.cfi_def_cfa_offset 4
 1311              		.cfi_offset 7, -4
 1312 07f6 83B0     		sub	sp, sp, #12
 1313              	.LCFI36:
 1314              		.cfi_def_cfa_offset 16
 1315 07f8 00AF     		add	r7, sp, #0
 1316              	.LCFI37:
 1317              		.cfi_def_cfa_register 7
 1318 07fa 7860     		str	r0, [r7, #4]
 1319 07fc 0B46     		mov	r3, r1
 1320 07fe FB70     		strb	r3, [r7, #3]
 566:../Libraries/STM32F10x_StdPeriph_Driver/src/stm32f10x_fsmc.c ****   assert_param(IS_FSMC_NAND_BANK(FSMC_Bank));
 567:../Libraries/STM32F10x_StdPeriph_Driver/src/stm32f10x_fsmc.c ****   assert_param(IS_FUNCTIONAL_STATE(NewState));
 568:../Libraries/STM32F10x_StdPeriph_Driver/src/stm32f10x_fsmc.c ****   
 569:../Libraries/STM32F10x_StdPeriph_Driver/src/stm32f10x_fsmc.c ****   if (NewState != DISABLE)
 1321              		.loc 1 569 0
 1322 0800 FB78     		ldrb	r3, [r7, #3]	@ zero_extendqisi2
 1323 0802 002B     		cmp	r3, #0
 1324 0804 1CD0     		beq	.L31
 570:../Libraries/STM32F10x_StdPeriph_Driver/src/stm32f10x_fsmc.c ****   {
 571:../Libraries/STM32F10x_StdPeriph_Driver/src/stm32f10x_fsmc.c ****     /* Enable the selected NAND Bank ECC function by setting the ECCEN bit in the PCRx register */
 572:../Libraries/STM32F10x_StdPeriph_Driver/src/stm32f10x_fsmc.c ****     if(FSMC_Bank == FSMC_Bank2_NAND)
 1325              		.loc 1 572 0
 1326 0806 7B68     		ldr	r3, [r7, #4]
 1327 0808 102B     		cmp	r3, #16
 1328 080a 0CD1     		bne	.L32
 573:../Libraries/STM32F10x_StdPeriph_Driver/src/stm32f10x_fsmc.c ****     {
 574:../Libraries/STM32F10x_StdPeriph_Driver/src/stm32f10x_fsmc.c ****       FSMC_Bank2->PCR2 |= PCR_ECCEN_Set;
 1329              		.loc 1 574 0
 1330 080c 4FF06003 		mov	r3, #96
 1331 0810 CAF20003 		movt	r3, 40960
 1332 0814 4FF06002 		mov	r2, #96
 1333 0818 CAF20002 		movt	r2, 40960
 1334 081c 1268     		ldr	r2, [r2, #0]
 1335 081e 42F04002 		orr	r2, r2, #64
 1336 0822 1A60     		str	r2, [r3, #0]
 1337 0824 2EE0     		b	.L30
 1338              	.L32:
 575:../Libraries/STM32F10x_StdPeriph_Driver/src/stm32f10x_fsmc.c ****     }
 576:../Libraries/STM32F10x_StdPeriph_Driver/src/stm32f10x_fsmc.c ****     else
 577:../Libraries/STM32F10x_StdPeriph_Driver/src/stm32f10x_fsmc.c ****     {
 578:../Libraries/STM32F10x_StdPeriph_Driver/src/stm32f10x_fsmc.c ****       FSMC_Bank3->PCR3 |= PCR_ECCEN_Set;
 1339              		.loc 1 578 0
 1340 0826 4FF08003 		mov	r3, #128
 1341 082a CAF20003 		movt	r3, 40960
 1342 082e 4FF08002 		mov	r2, #128
 1343 0832 CAF20002 		movt	r2, 40960
 1344 0836 1268     		ldr	r2, [r2, #0]
 1345 0838 42F04002 		orr	r2, r2, #64
 1346 083c 1A60     		str	r2, [r3, #0]
 1347 083e 21E0     		b	.L30
 1348              	.L31:
 579:../Libraries/STM32F10x_StdPeriph_Driver/src/stm32f10x_fsmc.c ****     }
 580:../Libraries/STM32F10x_StdPeriph_Driver/src/stm32f10x_fsmc.c ****   }
 581:../Libraries/STM32F10x_StdPeriph_Driver/src/stm32f10x_fsmc.c ****   else
 582:../Libraries/STM32F10x_StdPeriph_Driver/src/stm32f10x_fsmc.c ****   {
 583:../Libraries/STM32F10x_StdPeriph_Driver/src/stm32f10x_fsmc.c ****     /* Disable the selected NAND Bank ECC function by clearing the ECCEN bit in the PCRx register *
 584:../Libraries/STM32F10x_StdPeriph_Driver/src/stm32f10x_fsmc.c ****     if(FSMC_Bank == FSMC_Bank2_NAND)
 1349              		.loc 1 584 0
 1350 0840 7B68     		ldr	r3, [r7, #4]
 1351 0842 102B     		cmp	r3, #16
 1352 0844 0FD1     		bne	.L34
 585:../Libraries/STM32F10x_StdPeriph_Driver/src/stm32f10x_fsmc.c ****     {
 586:../Libraries/STM32F10x_StdPeriph_Driver/src/stm32f10x_fsmc.c ****       FSMC_Bank2->PCR2 &= PCR_ECCEN_Reset;
 1353              		.loc 1 586 0
 1354 0846 4FF06002 		mov	r2, #96
 1355 084a CAF20002 		movt	r2, 40960
 1356 084e 4FF06003 		mov	r3, #96
 1357 0852 CAF20003 		movt	r3, 40960
 1358 0856 1968     		ldr	r1, [r3, #0]
 1359 0858 4FF6BF73 		movw	r3, #65471
 1360 085c C0F20F03 		movt	r3, 15
 1361 0860 0B40     		ands	r3, r3, r1
 1362 0862 1360     		str	r3, [r2, #0]
 1363 0864 0EE0     		b	.L30
 1364              	.L34:
 587:../Libraries/STM32F10x_StdPeriph_Driver/src/stm32f10x_fsmc.c ****     }
 588:../Libraries/STM32F10x_StdPeriph_Driver/src/stm32f10x_fsmc.c ****     else
 589:../Libraries/STM32F10x_StdPeriph_Driver/src/stm32f10x_fsmc.c ****     {
 590:../Libraries/STM32F10x_StdPeriph_Driver/src/stm32f10x_fsmc.c ****       FSMC_Bank3->PCR3 &= PCR_ECCEN_Reset;
 1365              		.loc 1 590 0
 1366 0866 4FF08002 		mov	r2, #128
 1367 086a CAF20002 		movt	r2, 40960
 1368 086e 4FF08003 		mov	r3, #128
 1369 0872 CAF20003 		movt	r3, 40960
 1370 0876 1968     		ldr	r1, [r3, #0]
 1371 0878 4FF6BF73 		movw	r3, #65471
 1372 087c C0F20F03 		movt	r3, 15
 1373 0880 0B40     		ands	r3, r3, r1
 1374 0882 1360     		str	r3, [r2, #0]
 1375              	.L30:
 591:../Libraries/STM32F10x_StdPeriph_Driver/src/stm32f10x_fsmc.c ****     }
 592:../Libraries/STM32F10x_StdPeriph_Driver/src/stm32f10x_fsmc.c ****   }
 593:../Libraries/STM32F10x_StdPeriph_Driver/src/stm32f10x_fsmc.c **** }
 1376              		.loc 1 593 0
 1377 0884 07F10C07 		add	r7, r7, #12
 1378 0888 BD46     		mov	sp, r7
 1379 088a 80BC     		pop	{r7}
 1380 088c 7047     		bx	lr
 1381              		.cfi_endproc
 1382              	.LFE41:
 1384 088e 00BF     		.align	2
 1385              		.global	FSMC_GetECC
 1386              		.thumb
 1387              		.thumb_func
 1389              	FSMC_GetECC:
 1390              	.LFB42:
 594:../Libraries/STM32F10x_StdPeriph_Driver/src/stm32f10x_fsmc.c **** 
 595:../Libraries/STM32F10x_StdPeriph_Driver/src/stm32f10x_fsmc.c **** /**
 596:../Libraries/STM32F10x_StdPeriph_Driver/src/stm32f10x_fsmc.c ****   * @brief  Returns the error correction code register value.
 597:../Libraries/STM32F10x_StdPeriph_Driver/src/stm32f10x_fsmc.c ****   * @param  FSMC_Bank: specifies the FSMC Bank to be used
 598:../Libraries/STM32F10x_StdPeriph_Driver/src/stm32f10x_fsmc.c ****   *   This parameter can be one of the following values:
 599:../Libraries/STM32F10x_StdPeriph_Driver/src/stm32f10x_fsmc.c ****   *     @arg FSMC_Bank2_NAND: FSMC Bank2 NAND 
 600:../Libraries/STM32F10x_StdPeriph_Driver/src/stm32f10x_fsmc.c ****   *     @arg FSMC_Bank3_NAND: FSMC Bank3 NAND
 601:../Libraries/STM32F10x_StdPeriph_Driver/src/stm32f10x_fsmc.c ****   * @retval The Error Correction Code (ECC) value.
 602:../Libraries/STM32F10x_StdPeriph_Driver/src/stm32f10x_fsmc.c ****   */
 603:../Libraries/STM32F10x_StdPeriph_Driver/src/stm32f10x_fsmc.c **** uint32_t FSMC_GetECC(uint32_t FSMC_Bank)
 604:../Libraries/STM32F10x_StdPeriph_Driver/src/stm32f10x_fsmc.c **** {
 1391              		.loc 1 604 0
 1392              		.cfi_startproc
 1393              		@ args = 0, pretend = 0, frame = 16
 1394              		@ frame_needed = 1, uses_anonymous_args = 0
 1395              		@ link register save eliminated.
 1396 0890 80B4     		push	{r7}
 1397              	.LCFI38:
 1398              		.cfi_def_cfa_offset 4
 1399              		.cfi_offset 7, -4
 1400 0892 85B0     		sub	sp, sp, #20
 1401              	.LCFI39:
 1402              		.cfi_def_cfa_offset 24
 1403 0894 00AF     		add	r7, sp, #0
 1404              	.LCFI40:
 1405              		.cfi_def_cfa_register 7
 1406 0896 7860     		str	r0, [r7, #4]
 605:../Libraries/STM32F10x_StdPeriph_Driver/src/stm32f10x_fsmc.c ****   uint32_t eccval = 0x00000000;
 1407              		.loc 1 605 0
 1408 0898 4FF00003 		mov	r3, #0
 1409 089c FB60     		str	r3, [r7, #12]
 606:../Libraries/STM32F10x_StdPeriph_Driver/src/stm32f10x_fsmc.c ****   
 607:../Libraries/STM32F10x_StdPeriph_Driver/src/stm32f10x_fsmc.c ****   if(FSMC_Bank == FSMC_Bank2_NAND)
 1410              		.loc 1 607 0
 1411 089e 7B68     		ldr	r3, [r7, #4]
 1412 08a0 102B     		cmp	r3, #16
 1413 08a2 06D1     		bne	.L36
 608:../Libraries/STM32F10x_StdPeriph_Driver/src/stm32f10x_fsmc.c ****   {
 609:../Libraries/STM32F10x_StdPeriph_Driver/src/stm32f10x_fsmc.c ****     /* Get the ECCR2 register value */
 610:../Libraries/STM32F10x_StdPeriph_Driver/src/stm32f10x_fsmc.c ****     eccval = FSMC_Bank2->ECCR2;
 1414              		.loc 1 610 0
 1415 08a4 4FF06003 		mov	r3, #96
 1416 08a8 CAF20003 		movt	r3, 40960
 1417 08ac 5B69     		ldr	r3, [r3, #20]
 1418 08ae FB60     		str	r3, [r7, #12]
 1419 08b0 05E0     		b	.L37
 1420              	.L36:
 611:../Libraries/STM32F10x_StdPeriph_Driver/src/stm32f10x_fsmc.c ****   }
 612:../Libraries/STM32F10x_StdPeriph_Driver/src/stm32f10x_fsmc.c ****   else
 613:../Libraries/STM32F10x_StdPeriph_Driver/src/stm32f10x_fsmc.c ****   {
 614:../Libraries/STM32F10x_StdPeriph_Driver/src/stm32f10x_fsmc.c ****     /* Get the ECCR3 register value */
 615:../Libraries/STM32F10x_StdPeriph_Driver/src/stm32f10x_fsmc.c ****     eccval = FSMC_Bank3->ECCR3;
 1421              		.loc 1 615 0
 1422 08b2 4FF08003 		mov	r3, #128
 1423 08b6 CAF20003 		movt	r3, 40960
 1424 08ba 5B69     		ldr	r3, [r3, #20]
 1425 08bc FB60     		str	r3, [r7, #12]
 1426              	.L37:
 616:../Libraries/STM32F10x_StdPeriph_Driver/src/stm32f10x_fsmc.c ****   }
 617:../Libraries/STM32F10x_StdPeriph_Driver/src/stm32f10x_fsmc.c ****   /* Return the error correction code value */
 618:../Libraries/STM32F10x_StdPeriph_Driver/src/stm32f10x_fsmc.c ****   return(eccval);
 1427              		.loc 1 618 0
 1428 08be FB68     		ldr	r3, [r7, #12]
 619:../Libraries/STM32F10x_StdPeriph_Driver/src/stm32f10x_fsmc.c **** }
 1429              		.loc 1 619 0
 1430 08c0 1846     		mov	r0, r3
 1431 08c2 07F11407 		add	r7, r7, #20
 1432 08c6 BD46     		mov	sp, r7
 1433 08c8 80BC     		pop	{r7}
 1434 08ca 7047     		bx	lr
 1435              		.cfi_endproc
 1436              	.LFE42:
 1438              		.align	2
 1439              		.global	FSMC_ITConfig
 1440              		.thumb
 1441              		.thumb_func
 1443              	FSMC_ITConfig:
 1444              	.LFB43:
 620:../Libraries/STM32F10x_StdPeriph_Driver/src/stm32f10x_fsmc.c **** 
 621:../Libraries/STM32F10x_StdPeriph_Driver/src/stm32f10x_fsmc.c **** /**
 622:../Libraries/STM32F10x_StdPeriph_Driver/src/stm32f10x_fsmc.c ****   * @brief  Enables or disables the specified FSMC interrupts.
 623:../Libraries/STM32F10x_StdPeriph_Driver/src/stm32f10x_fsmc.c ****   * @param  FSMC_Bank: specifies the FSMC Bank to be used
 624:../Libraries/STM32F10x_StdPeriph_Driver/src/stm32f10x_fsmc.c ****   *   This parameter can be one of the following values:
 625:../Libraries/STM32F10x_StdPeriph_Driver/src/stm32f10x_fsmc.c ****   *     @arg FSMC_Bank2_NAND: FSMC Bank2 NAND 
 626:../Libraries/STM32F10x_StdPeriph_Driver/src/stm32f10x_fsmc.c ****   *     @arg FSMC_Bank3_NAND: FSMC Bank3 NAND
 627:../Libraries/STM32F10x_StdPeriph_Driver/src/stm32f10x_fsmc.c ****   *     @arg FSMC_Bank4_PCCARD: FSMC Bank4 PCCARD
 628:../Libraries/STM32F10x_StdPeriph_Driver/src/stm32f10x_fsmc.c ****   * @param  FSMC_IT: specifies the FSMC interrupt sources to be enabled or disabled.
 629:../Libraries/STM32F10x_StdPeriph_Driver/src/stm32f10x_fsmc.c ****   *   This parameter can be any combination of the following values:
 630:../Libraries/STM32F10x_StdPeriph_Driver/src/stm32f10x_fsmc.c ****   *     @arg FSMC_IT_RisingEdge: Rising edge detection interrupt. 
 631:../Libraries/STM32F10x_StdPeriph_Driver/src/stm32f10x_fsmc.c ****   *     @arg FSMC_IT_Level: Level edge detection interrupt.
 632:../Libraries/STM32F10x_StdPeriph_Driver/src/stm32f10x_fsmc.c ****   *     @arg FSMC_IT_FallingEdge: Falling edge detection interrupt.
 633:../Libraries/STM32F10x_StdPeriph_Driver/src/stm32f10x_fsmc.c ****   * @param  NewState: new state of the specified FSMC interrupts.
 634:../Libraries/STM32F10x_StdPeriph_Driver/src/stm32f10x_fsmc.c ****   *   This parameter can be: ENABLE or DISABLE.
 635:../Libraries/STM32F10x_StdPeriph_Driver/src/stm32f10x_fsmc.c ****   * @retval None
 636:../Libraries/STM32F10x_StdPeriph_Driver/src/stm32f10x_fsmc.c ****   */
 637:../Libraries/STM32F10x_StdPeriph_Driver/src/stm32f10x_fsmc.c **** void FSMC_ITConfig(uint32_t FSMC_Bank, uint32_t FSMC_IT, FunctionalState NewState)
 638:../Libraries/STM32F10x_StdPeriph_Driver/src/stm32f10x_fsmc.c **** {
 1445              		.loc 1 638 0
 1446              		.cfi_startproc
 1447              		@ args = 0, pretend = 0, frame = 16
 1448              		@ frame_needed = 1, uses_anonymous_args = 0
 1449              		@ link register save eliminated.
 1450 08cc 80B4     		push	{r7}
 1451              	.LCFI41:
 1452              		.cfi_def_cfa_offset 4
 1453              		.cfi_offset 7, -4
 1454 08ce 85B0     		sub	sp, sp, #20
 1455              	.LCFI42:
 1456              		.cfi_def_cfa_offset 24
 1457 08d0 00AF     		add	r7, sp, #0
 1458              	.LCFI43:
 1459              		.cfi_def_cfa_register 7
 1460 08d2 F860     		str	r0, [r7, #12]
 1461 08d4 B960     		str	r1, [r7, #8]
 1462 08d6 1346     		mov	r3, r2
 1463 08d8 FB71     		strb	r3, [r7, #7]
 639:../Libraries/STM32F10x_StdPeriph_Driver/src/stm32f10x_fsmc.c ****   assert_param(IS_FSMC_IT_BANK(FSMC_Bank));
 640:../Libraries/STM32F10x_StdPeriph_Driver/src/stm32f10x_fsmc.c ****   assert_param(IS_FSMC_IT(FSMC_IT));	
 641:../Libraries/STM32F10x_StdPeriph_Driver/src/stm32f10x_fsmc.c ****   assert_param(IS_FUNCTIONAL_STATE(NewState));
 642:../Libraries/STM32F10x_StdPeriph_Driver/src/stm32f10x_fsmc.c ****   
 643:../Libraries/STM32F10x_StdPeriph_Driver/src/stm32f10x_fsmc.c ****   if (NewState != DISABLE)
 1464              		.loc 1 643 0
 1465 08da FB79     		ldrb	r3, [r7, #7]	@ zero_extendqisi2
 1466 08dc 002B     		cmp	r3, #0
 1467 08de 2DD0     		beq	.L39
 644:../Libraries/STM32F10x_StdPeriph_Driver/src/stm32f10x_fsmc.c ****   {
 645:../Libraries/STM32F10x_StdPeriph_Driver/src/stm32f10x_fsmc.c ****     /* Enable the selected FSMC_Bank2 interrupts */
 646:../Libraries/STM32F10x_StdPeriph_Driver/src/stm32f10x_fsmc.c ****     if(FSMC_Bank == FSMC_Bank2_NAND)
 1468              		.loc 1 646 0
 1469 08e0 FB68     		ldr	r3, [r7, #12]
 1470 08e2 102B     		cmp	r3, #16
 1471 08e4 0CD1     		bne	.L40
 647:../Libraries/STM32F10x_StdPeriph_Driver/src/stm32f10x_fsmc.c ****     {
 648:../Libraries/STM32F10x_StdPeriph_Driver/src/stm32f10x_fsmc.c ****       FSMC_Bank2->SR2 |= FSMC_IT;
 1472              		.loc 1 648 0
 1473 08e6 4FF06003 		mov	r3, #96
 1474 08ea CAF20003 		movt	r3, 40960
 1475 08ee 4FF06002 		mov	r2, #96
 1476 08f2 CAF20002 		movt	r2, 40960
 1477 08f6 5168     		ldr	r1, [r2, #4]
 1478 08f8 BA68     		ldr	r2, [r7, #8]
 1479 08fa 0A43     		orrs	r2, r2, r1
 1480 08fc 5A60     		str	r2, [r3, #4]
 1481 08fe 50E0     		b	.L38
 1482              	.L40:
 649:../Libraries/STM32F10x_StdPeriph_Driver/src/stm32f10x_fsmc.c ****     }
 650:../Libraries/STM32F10x_StdPeriph_Driver/src/stm32f10x_fsmc.c ****     /* Enable the selected FSMC_Bank3 interrupts */
 651:../Libraries/STM32F10x_StdPeriph_Driver/src/stm32f10x_fsmc.c ****     else if (FSMC_Bank == FSMC_Bank3_NAND)
 1483              		.loc 1 651 0
 1484 0900 FB68     		ldr	r3, [r7, #12]
 1485 0902 B3F5807F 		cmp	r3, #256
 1486 0906 0CD1     		bne	.L42
 652:../Libraries/STM32F10x_StdPeriph_Driver/src/stm32f10x_fsmc.c ****     {
 653:../Libraries/STM32F10x_StdPeriph_Driver/src/stm32f10x_fsmc.c ****       FSMC_Bank3->SR3 |= FSMC_IT;
 1487              		.loc 1 653 0
 1488 0908 4FF08003 		mov	r3, #128
 1489 090c CAF20003 		movt	r3, 40960
 1490 0910 4FF08002 		mov	r2, #128
 1491 0914 CAF20002 		movt	r2, 40960
 1492 0918 5168     		ldr	r1, [r2, #4]
 1493 091a BA68     		ldr	r2, [r7, #8]
 1494 091c 0A43     		orrs	r2, r2, r1
 1495 091e 5A60     		str	r2, [r3, #4]
 1496 0920 3FE0     		b	.L38
 1497              	.L42:
 654:../Libraries/STM32F10x_StdPeriph_Driver/src/stm32f10x_fsmc.c ****     }
 655:../Libraries/STM32F10x_StdPeriph_Driver/src/stm32f10x_fsmc.c ****     /* Enable the selected FSMC_Bank4 interrupts */
 656:../Libraries/STM32F10x_StdPeriph_Driver/src/stm32f10x_fsmc.c ****     else
 657:../Libraries/STM32F10x_StdPeriph_Driver/src/stm32f10x_fsmc.c ****     {
 658:../Libraries/STM32F10x_StdPeriph_Driver/src/stm32f10x_fsmc.c ****       FSMC_Bank4->SR4 |= FSMC_IT;    
 1498              		.loc 1 658 0
 1499 0922 4FF0A003 		mov	r3, #160
 1500 0926 CAF20003 		movt	r3, 40960
 1501 092a 4FF0A002 		mov	r2, #160
 1502 092e CAF20002 		movt	r2, 40960
 1503 0932 5168     		ldr	r1, [r2, #4]
 1504 0934 BA68     		ldr	r2, [r7, #8]
 1505 0936 0A43     		orrs	r2, r2, r1
 1506 0938 5A60     		str	r2, [r3, #4]
 1507 093a 32E0     		b	.L38
 1508              	.L39:
 659:../Libraries/STM32F10x_StdPeriph_Driver/src/stm32f10x_fsmc.c ****     }
 660:../Libraries/STM32F10x_StdPeriph_Driver/src/stm32f10x_fsmc.c ****   }
 661:../Libraries/STM32F10x_StdPeriph_Driver/src/stm32f10x_fsmc.c ****   else
 662:../Libraries/STM32F10x_StdPeriph_Driver/src/stm32f10x_fsmc.c ****   {
 663:../Libraries/STM32F10x_StdPeriph_Driver/src/stm32f10x_fsmc.c ****     /* Disable the selected FSMC_Bank2 interrupts */
 664:../Libraries/STM32F10x_StdPeriph_Driver/src/stm32f10x_fsmc.c ****     if(FSMC_Bank == FSMC_Bank2_NAND)
 1509              		.loc 1 664 0
 1510 093c FB68     		ldr	r3, [r7, #12]
 1511 093e 102B     		cmp	r3, #16
 1512 0940 0ED1     		bne	.L43
 665:../Libraries/STM32F10x_StdPeriph_Driver/src/stm32f10x_fsmc.c ****     {
 666:../Libraries/STM32F10x_StdPeriph_Driver/src/stm32f10x_fsmc.c ****       
 667:../Libraries/STM32F10x_StdPeriph_Driver/src/stm32f10x_fsmc.c ****       FSMC_Bank2->SR2 &= (uint32_t)~FSMC_IT;
 1513              		.loc 1 667 0
 1514 0942 4FF06003 		mov	r3, #96
 1515 0946 CAF20003 		movt	r3, 40960
 1516 094a 4FF06002 		mov	r2, #96
 1517 094e CAF20002 		movt	r2, 40960
 1518 0952 5168     		ldr	r1, [r2, #4]
 1519 0954 BA68     		ldr	r2, [r7, #8]
 1520 0956 6FEA0202 		mvn	r2, r2
 1521 095a 0A40     		ands	r2, r2, r1
 1522 095c 5A60     		str	r2, [r3, #4]
 1523 095e 20E0     		b	.L38
 1524              	.L43:
 668:../Libraries/STM32F10x_StdPeriph_Driver/src/stm32f10x_fsmc.c ****     }
 669:../Libraries/STM32F10x_StdPeriph_Driver/src/stm32f10x_fsmc.c ****     /* Disable the selected FSMC_Bank3 interrupts */
 670:../Libraries/STM32F10x_StdPeriph_Driver/src/stm32f10x_fsmc.c ****     else if (FSMC_Bank == FSMC_Bank3_NAND)
 1525              		.loc 1 670 0
 1526 0960 FB68     		ldr	r3, [r7, #12]
 1527 0962 B3F5807F 		cmp	r3, #256
 1528 0966 0ED1     		bne	.L44
 671:../Libraries/STM32F10x_StdPeriph_Driver/src/stm32f10x_fsmc.c ****     {
 672:../Libraries/STM32F10x_StdPeriph_Driver/src/stm32f10x_fsmc.c ****       FSMC_Bank3->SR3 &= (uint32_t)~FSMC_IT;
 1529              		.loc 1 672 0
 1530 0968 4FF08003 		mov	r3, #128
 1531 096c CAF20003 		movt	r3, 40960
 1532 0970 4FF08002 		mov	r2, #128
 1533 0974 CAF20002 		movt	r2, 40960
 1534 0978 5168     		ldr	r1, [r2, #4]
 1535 097a BA68     		ldr	r2, [r7, #8]
 1536 097c 6FEA0202 		mvn	r2, r2
 1537 0980 0A40     		ands	r2, r2, r1
 1538 0982 5A60     		str	r2, [r3, #4]
 1539 0984 0DE0     		b	.L38
 1540              	.L44:
 673:../Libraries/STM32F10x_StdPeriph_Driver/src/stm32f10x_fsmc.c ****     }
 674:../Libraries/STM32F10x_StdPeriph_Driver/src/stm32f10x_fsmc.c ****     /* Disable the selected FSMC_Bank4 interrupts */
 675:../Libraries/STM32F10x_StdPeriph_Driver/src/stm32f10x_fsmc.c ****     else
 676:../Libraries/STM32F10x_StdPeriph_Driver/src/stm32f10x_fsmc.c ****     {
 677:../Libraries/STM32F10x_StdPeriph_Driver/src/stm32f10x_fsmc.c ****       FSMC_Bank4->SR4 &= (uint32_t)~FSMC_IT;    
 1541              		.loc 1 677 0
 1542 0986 4FF0A003 		mov	r3, #160
 1543 098a CAF20003 		movt	r3, 40960
 1544 098e 4FF0A002 		mov	r2, #160
 1545 0992 CAF20002 		movt	r2, 40960
 1546 0996 5168     		ldr	r1, [r2, #4]
 1547 0998 BA68     		ldr	r2, [r7, #8]
 1548 099a 6FEA0202 		mvn	r2, r2
 1549 099e 0A40     		ands	r2, r2, r1
 1550 09a0 5A60     		str	r2, [r3, #4]
 1551              	.L38:
 678:../Libraries/STM32F10x_StdPeriph_Driver/src/stm32f10x_fsmc.c ****     }
 679:../Libraries/STM32F10x_StdPeriph_Driver/src/stm32f10x_fsmc.c ****   }
 680:../Libraries/STM32F10x_StdPeriph_Driver/src/stm32f10x_fsmc.c **** }
 1552              		.loc 1 680 0
 1553 09a2 07F11407 		add	r7, r7, #20
 1554 09a6 BD46     		mov	sp, r7
 1555 09a8 80BC     		pop	{r7}
 1556 09aa 7047     		bx	lr
 1557              		.cfi_endproc
 1558              	.LFE43:
 1560              		.align	2
 1561              		.global	FSMC_GetFlagStatus
 1562              		.thumb
 1563              		.thumb_func
 1565              	FSMC_GetFlagStatus:
 1566              	.LFB44:
 681:../Libraries/STM32F10x_StdPeriph_Driver/src/stm32f10x_fsmc.c **** 
 682:../Libraries/STM32F10x_StdPeriph_Driver/src/stm32f10x_fsmc.c **** /**
 683:../Libraries/STM32F10x_StdPeriph_Driver/src/stm32f10x_fsmc.c ****   * @brief  Checks whether the specified FSMC flag is set or not.
 684:../Libraries/STM32F10x_StdPeriph_Driver/src/stm32f10x_fsmc.c ****   * @param  FSMC_Bank: specifies the FSMC Bank to be used
 685:../Libraries/STM32F10x_StdPeriph_Driver/src/stm32f10x_fsmc.c ****   *   This parameter can be one of the following values:
 686:../Libraries/STM32F10x_StdPeriph_Driver/src/stm32f10x_fsmc.c ****   *     @arg FSMC_Bank2_NAND: FSMC Bank2 NAND 
 687:../Libraries/STM32F10x_StdPeriph_Driver/src/stm32f10x_fsmc.c ****   *     @arg FSMC_Bank3_NAND: FSMC Bank3 NAND
 688:../Libraries/STM32F10x_StdPeriph_Driver/src/stm32f10x_fsmc.c ****   *     @arg FSMC_Bank4_PCCARD: FSMC Bank4 PCCARD
 689:../Libraries/STM32F10x_StdPeriph_Driver/src/stm32f10x_fsmc.c ****   * @param  FSMC_FLAG: specifies the flag to check.
 690:../Libraries/STM32F10x_StdPeriph_Driver/src/stm32f10x_fsmc.c ****   *   This parameter can be one of the following values:
 691:../Libraries/STM32F10x_StdPeriph_Driver/src/stm32f10x_fsmc.c ****   *     @arg FSMC_FLAG_RisingEdge: Rising egde detection Flag.
 692:../Libraries/STM32F10x_StdPeriph_Driver/src/stm32f10x_fsmc.c ****   *     @arg FSMC_FLAG_Level: Level detection Flag.
 693:../Libraries/STM32F10x_StdPeriph_Driver/src/stm32f10x_fsmc.c ****   *     @arg FSMC_FLAG_FallingEdge: Falling egde detection Flag.
 694:../Libraries/STM32F10x_StdPeriph_Driver/src/stm32f10x_fsmc.c ****   *     @arg FSMC_FLAG_FEMPT: Fifo empty Flag. 
 695:../Libraries/STM32F10x_StdPeriph_Driver/src/stm32f10x_fsmc.c ****   * @retval The new state of FSMC_FLAG (SET or RESET).
 696:../Libraries/STM32F10x_StdPeriph_Driver/src/stm32f10x_fsmc.c ****   */
 697:../Libraries/STM32F10x_StdPeriph_Driver/src/stm32f10x_fsmc.c **** FlagStatus FSMC_GetFlagStatus(uint32_t FSMC_Bank, uint32_t FSMC_FLAG)
 698:../Libraries/STM32F10x_StdPeriph_Driver/src/stm32f10x_fsmc.c **** {
 1567              		.loc 1 698 0
 1568              		.cfi_startproc
 1569              		@ args = 0, pretend = 0, frame = 16
 1570              		@ frame_needed = 1, uses_anonymous_args = 0
 1571              		@ link register save eliminated.
 1572 09ac 80B4     		push	{r7}
 1573              	.LCFI44:
 1574              		.cfi_def_cfa_offset 4
 1575              		.cfi_offset 7, -4
 1576 09ae 85B0     		sub	sp, sp, #20
 1577              	.LCFI45:
 1578              		.cfi_def_cfa_offset 24
 1579 09b0 00AF     		add	r7, sp, #0
 1580              	.LCFI46:
 1581              		.cfi_def_cfa_register 7
 1582 09b2 7860     		str	r0, [r7, #4]
 1583 09b4 3960     		str	r1, [r7, #0]
 699:../Libraries/STM32F10x_StdPeriph_Driver/src/stm32f10x_fsmc.c ****   FlagStatus bitstatus = RESET;
 1584              		.loc 1 699 0
 1585 09b6 4FF00003 		mov	r3, #0
 1586 09ba FB73     		strb	r3, [r7, #15]
 700:../Libraries/STM32F10x_StdPeriph_Driver/src/stm32f10x_fsmc.c ****   uint32_t tmpsr = 0x00000000;
 1587              		.loc 1 700 0
 1588 09bc 4FF00003 		mov	r3, #0
 1589 09c0 BB60     		str	r3, [r7, #8]
 701:../Libraries/STM32F10x_StdPeriph_Driver/src/stm32f10x_fsmc.c ****   
 702:../Libraries/STM32F10x_StdPeriph_Driver/src/stm32f10x_fsmc.c ****   /* Check the parameters */
 703:../Libraries/STM32F10x_StdPeriph_Driver/src/stm32f10x_fsmc.c ****   assert_param(IS_FSMC_GETFLAG_BANK(FSMC_Bank));
 704:../Libraries/STM32F10x_StdPeriph_Driver/src/stm32f10x_fsmc.c ****   assert_param(IS_FSMC_GET_FLAG(FSMC_FLAG));
 705:../Libraries/STM32F10x_StdPeriph_Driver/src/stm32f10x_fsmc.c ****   
 706:../Libraries/STM32F10x_StdPeriph_Driver/src/stm32f10x_fsmc.c ****   if(FSMC_Bank == FSMC_Bank2_NAND)
 1590              		.loc 1 706 0
 1591 09c2 7B68     		ldr	r3, [r7, #4]
 1592 09c4 102B     		cmp	r3, #16
 1593 09c6 06D1     		bne	.L46
 707:../Libraries/STM32F10x_StdPeriph_Driver/src/stm32f10x_fsmc.c ****   {
 708:../Libraries/STM32F10x_StdPeriph_Driver/src/stm32f10x_fsmc.c ****     tmpsr = FSMC_Bank2->SR2;
 1594              		.loc 1 708 0
 1595 09c8 4FF06003 		mov	r3, #96
 1596 09cc CAF20003 		movt	r3, 40960
 1597 09d0 5B68     		ldr	r3, [r3, #4]
 1598 09d2 BB60     		str	r3, [r7, #8]
 1599 09d4 10E0     		b	.L47
 1600              	.L46:
 709:../Libraries/STM32F10x_StdPeriph_Driver/src/stm32f10x_fsmc.c ****   }  
 710:../Libraries/STM32F10x_StdPeriph_Driver/src/stm32f10x_fsmc.c ****   else if(FSMC_Bank == FSMC_Bank3_NAND)
 1601              		.loc 1 710 0
 1602 09d6 7B68     		ldr	r3, [r7, #4]
 1603 09d8 B3F5807F 		cmp	r3, #256
 1604 09dc 06D1     		bne	.L48
 711:../Libraries/STM32F10x_StdPeriph_Driver/src/stm32f10x_fsmc.c ****   {
 712:../Libraries/STM32F10x_StdPeriph_Driver/src/stm32f10x_fsmc.c ****     tmpsr = FSMC_Bank3->SR3;
 1605              		.loc 1 712 0
 1606 09de 4FF08003 		mov	r3, #128
 1607 09e2 CAF20003 		movt	r3, 40960
 1608 09e6 5B68     		ldr	r3, [r3, #4]
 1609 09e8 BB60     		str	r3, [r7, #8]
 1610 09ea 05E0     		b	.L47
 1611              	.L48:
 713:../Libraries/STM32F10x_StdPeriph_Driver/src/stm32f10x_fsmc.c ****   }
 714:../Libraries/STM32F10x_StdPeriph_Driver/src/stm32f10x_fsmc.c ****   /* FSMC_Bank4_PCCARD*/
 715:../Libraries/STM32F10x_StdPeriph_Driver/src/stm32f10x_fsmc.c ****   else
 716:../Libraries/STM32F10x_StdPeriph_Driver/src/stm32f10x_fsmc.c ****   {
 717:../Libraries/STM32F10x_StdPeriph_Driver/src/stm32f10x_fsmc.c ****     tmpsr = FSMC_Bank4->SR4;
 1612              		.loc 1 717 0
 1613 09ec 4FF0A003 		mov	r3, #160
 1614 09f0 CAF20003 		movt	r3, 40960
 1615 09f4 5B68     		ldr	r3, [r3, #4]
 1616 09f6 BB60     		str	r3, [r7, #8]
 1617              	.L47:
 718:../Libraries/STM32F10x_StdPeriph_Driver/src/stm32f10x_fsmc.c ****   } 
 719:../Libraries/STM32F10x_StdPeriph_Driver/src/stm32f10x_fsmc.c ****   
 720:../Libraries/STM32F10x_StdPeriph_Driver/src/stm32f10x_fsmc.c ****   /* Get the flag status */
 721:../Libraries/STM32F10x_StdPeriph_Driver/src/stm32f10x_fsmc.c ****   if ((tmpsr & FSMC_FLAG) != (uint16_t)RESET )
 1618              		.loc 1 721 0
 1619 09f8 BA68     		ldr	r2, [r7, #8]
 1620 09fa 3B68     		ldr	r3, [r7, #0]
 1621 09fc 1340     		ands	r3, r3, r2
 1622 09fe 002B     		cmp	r3, #0
 1623 0a00 03D0     		beq	.L49
 722:../Libraries/STM32F10x_StdPeriph_Driver/src/stm32f10x_fsmc.c ****   {
 723:../Libraries/STM32F10x_StdPeriph_Driver/src/stm32f10x_fsmc.c ****     bitstatus = SET;
 1624              		.loc 1 723 0
 1625 0a02 4FF00103 		mov	r3, #1
 1626 0a06 FB73     		strb	r3, [r7, #15]
 1627 0a08 02E0     		b	.L50
 1628              	.L49:
 724:../Libraries/STM32F10x_StdPeriph_Driver/src/stm32f10x_fsmc.c ****   }
 725:../Libraries/STM32F10x_StdPeriph_Driver/src/stm32f10x_fsmc.c ****   else
 726:../Libraries/STM32F10x_StdPeriph_Driver/src/stm32f10x_fsmc.c ****   {
 727:../Libraries/STM32F10x_StdPeriph_Driver/src/stm32f10x_fsmc.c ****     bitstatus = RESET;
 1629              		.loc 1 727 0
 1630 0a0a 4FF00003 		mov	r3, #0
 1631 0a0e FB73     		strb	r3, [r7, #15]
 1632              	.L50:
 728:../Libraries/STM32F10x_StdPeriph_Driver/src/stm32f10x_fsmc.c ****   }
 729:../Libraries/STM32F10x_StdPeriph_Driver/src/stm32f10x_fsmc.c ****   /* Return the flag status */
 730:../Libraries/STM32F10x_StdPeriph_Driver/src/stm32f10x_fsmc.c ****   return bitstatus;
 1633              		.loc 1 730 0
 1634 0a10 FB7B     		ldrb	r3, [r7, #15]	@ zero_extendqisi2
 731:../Libraries/STM32F10x_StdPeriph_Driver/src/stm32f10x_fsmc.c **** }
 1635              		.loc 1 731 0
 1636 0a12 1846     		mov	r0, r3
 1637 0a14 07F11407 		add	r7, r7, #20
 1638 0a18 BD46     		mov	sp, r7
 1639 0a1a 80BC     		pop	{r7}
 1640 0a1c 7047     		bx	lr
 1641              		.cfi_endproc
 1642              	.LFE44:
 1644 0a1e 00BF     		.align	2
 1645              		.global	FSMC_ClearFlag
 1646              		.thumb
 1647              		.thumb_func
 1649              	FSMC_ClearFlag:
 1650              	.LFB45:
 732:../Libraries/STM32F10x_StdPeriph_Driver/src/stm32f10x_fsmc.c **** 
 733:../Libraries/STM32F10x_StdPeriph_Driver/src/stm32f10x_fsmc.c **** /**
 734:../Libraries/STM32F10x_StdPeriph_Driver/src/stm32f10x_fsmc.c ****   * @brief  Clears the FSMC's pending flags.
 735:../Libraries/STM32F10x_StdPeriph_Driver/src/stm32f10x_fsmc.c ****   * @param  FSMC_Bank: specifies the FSMC Bank to be used
 736:../Libraries/STM32F10x_StdPeriph_Driver/src/stm32f10x_fsmc.c ****   *   This parameter can be one of the following values:
 737:../Libraries/STM32F10x_StdPeriph_Driver/src/stm32f10x_fsmc.c ****   *     @arg FSMC_Bank2_NAND: FSMC Bank2 NAND 
 738:../Libraries/STM32F10x_StdPeriph_Driver/src/stm32f10x_fsmc.c ****   *     @arg FSMC_Bank3_NAND: FSMC Bank3 NAND
 739:../Libraries/STM32F10x_StdPeriph_Driver/src/stm32f10x_fsmc.c ****   *     @arg FSMC_Bank4_PCCARD: FSMC Bank4 PCCARD
 740:../Libraries/STM32F10x_StdPeriph_Driver/src/stm32f10x_fsmc.c ****   * @param  FSMC_FLAG: specifies the flag to clear.
 741:../Libraries/STM32F10x_StdPeriph_Driver/src/stm32f10x_fsmc.c ****   *   This parameter can be any combination of the following values:
 742:../Libraries/STM32F10x_StdPeriph_Driver/src/stm32f10x_fsmc.c ****   *     @arg FSMC_FLAG_RisingEdge: Rising egde detection Flag.
 743:../Libraries/STM32F10x_StdPeriph_Driver/src/stm32f10x_fsmc.c ****   *     @arg FSMC_FLAG_Level: Level detection Flag.
 744:../Libraries/STM32F10x_StdPeriph_Driver/src/stm32f10x_fsmc.c ****   *     @arg FSMC_FLAG_FallingEdge: Falling egde detection Flag.
 745:../Libraries/STM32F10x_StdPeriph_Driver/src/stm32f10x_fsmc.c ****   * @retval None
 746:../Libraries/STM32F10x_StdPeriph_Driver/src/stm32f10x_fsmc.c ****   */
 747:../Libraries/STM32F10x_StdPeriph_Driver/src/stm32f10x_fsmc.c **** void FSMC_ClearFlag(uint32_t FSMC_Bank, uint32_t FSMC_FLAG)
 748:../Libraries/STM32F10x_StdPeriph_Driver/src/stm32f10x_fsmc.c **** {
 1651              		.loc 1 748 0
 1652              		.cfi_startproc
 1653              		@ args = 0, pretend = 0, frame = 8
 1654              		@ frame_needed = 1, uses_anonymous_args = 0
 1655              		@ link register save eliminated.
 1656 0a20 80B4     		push	{r7}
 1657              	.LCFI47:
 1658              		.cfi_def_cfa_offset 4
 1659              		.cfi_offset 7, -4
 1660 0a22 83B0     		sub	sp, sp, #12
 1661              	.LCFI48:
 1662              		.cfi_def_cfa_offset 16
 1663 0a24 00AF     		add	r7, sp, #0
 1664              	.LCFI49:
 1665              		.cfi_def_cfa_register 7
 1666 0a26 7860     		str	r0, [r7, #4]
 1667 0a28 3960     		str	r1, [r7, #0]
 749:../Libraries/STM32F10x_StdPeriph_Driver/src/stm32f10x_fsmc.c ****  /* Check the parameters */
 750:../Libraries/STM32F10x_StdPeriph_Driver/src/stm32f10x_fsmc.c ****   assert_param(IS_FSMC_GETFLAG_BANK(FSMC_Bank));
 751:../Libraries/STM32F10x_StdPeriph_Driver/src/stm32f10x_fsmc.c ****   assert_param(IS_FSMC_CLEAR_FLAG(FSMC_FLAG)) ;
 752:../Libraries/STM32F10x_StdPeriph_Driver/src/stm32f10x_fsmc.c ****     
 753:../Libraries/STM32F10x_StdPeriph_Driver/src/stm32f10x_fsmc.c ****   if(FSMC_Bank == FSMC_Bank2_NAND)
 1668              		.loc 1 753 0
 1669 0a2a 7B68     		ldr	r3, [r7, #4]
 1670 0a2c 102B     		cmp	r3, #16
 1671 0a2e 0ED1     		bne	.L52
 754:../Libraries/STM32F10x_StdPeriph_Driver/src/stm32f10x_fsmc.c ****   {
 755:../Libraries/STM32F10x_StdPeriph_Driver/src/stm32f10x_fsmc.c ****     FSMC_Bank2->SR2 &= ~FSMC_FLAG; 
 1672              		.loc 1 755 0
 1673 0a30 4FF06003 		mov	r3, #96
 1674 0a34 CAF20003 		movt	r3, 40960
 1675 0a38 4FF06002 		mov	r2, #96
 1676 0a3c CAF20002 		movt	r2, 40960
 1677 0a40 5168     		ldr	r1, [r2, #4]
 1678 0a42 3A68     		ldr	r2, [r7, #0]
 1679 0a44 6FEA0202 		mvn	r2, r2
 1680 0a48 0A40     		ands	r2, r2, r1
 1681 0a4a 5A60     		str	r2, [r3, #4]
 1682 0a4c 20E0     		b	.L51
 1683              	.L52:
 756:../Libraries/STM32F10x_StdPeriph_Driver/src/stm32f10x_fsmc.c ****   }  
 757:../Libraries/STM32F10x_StdPeriph_Driver/src/stm32f10x_fsmc.c ****   else if(FSMC_Bank == FSMC_Bank3_NAND)
 1684              		.loc 1 757 0
 1685 0a4e 7B68     		ldr	r3, [r7, #4]
 1686 0a50 B3F5807F 		cmp	r3, #256
 1687 0a54 0ED1     		bne	.L54
 758:../Libraries/STM32F10x_StdPeriph_Driver/src/stm32f10x_fsmc.c ****   {
 759:../Libraries/STM32F10x_StdPeriph_Driver/src/stm32f10x_fsmc.c ****     FSMC_Bank3->SR3 &= ~FSMC_FLAG;
 1688              		.loc 1 759 0
 1689 0a56 4FF08003 		mov	r3, #128
 1690 0a5a CAF20003 		movt	r3, 40960
 1691 0a5e 4FF08002 		mov	r2, #128
 1692 0a62 CAF20002 		movt	r2, 40960
 1693 0a66 5168     		ldr	r1, [r2, #4]
 1694 0a68 3A68     		ldr	r2, [r7, #0]
 1695 0a6a 6FEA0202 		mvn	r2, r2
 1696 0a6e 0A40     		ands	r2, r2, r1
 1697 0a70 5A60     		str	r2, [r3, #4]
 1698 0a72 0DE0     		b	.L51
 1699              	.L54:
 760:../Libraries/STM32F10x_StdPeriph_Driver/src/stm32f10x_fsmc.c ****   }
 761:../Libraries/STM32F10x_StdPeriph_Driver/src/stm32f10x_fsmc.c ****   /* FSMC_Bank4_PCCARD*/
 762:../Libraries/STM32F10x_StdPeriph_Driver/src/stm32f10x_fsmc.c ****   else
 763:../Libraries/STM32F10x_StdPeriph_Driver/src/stm32f10x_fsmc.c ****   {
 764:../Libraries/STM32F10x_StdPeriph_Driver/src/stm32f10x_fsmc.c ****     FSMC_Bank4->SR4 &= ~FSMC_FLAG;
 1700              		.loc 1 764 0
 1701 0a74 4FF0A003 		mov	r3, #160
 1702 0a78 CAF20003 		movt	r3, 40960
 1703 0a7c 4FF0A002 		mov	r2, #160
 1704 0a80 CAF20002 		movt	r2, 40960
 1705 0a84 5168     		ldr	r1, [r2, #4]
 1706 0a86 3A68     		ldr	r2, [r7, #0]
 1707 0a88 6FEA0202 		mvn	r2, r2
 1708 0a8c 0A40     		ands	r2, r2, r1
 1709 0a8e 5A60     		str	r2, [r3, #4]
 1710              	.L51:
 765:../Libraries/STM32F10x_StdPeriph_Driver/src/stm32f10x_fsmc.c ****   }
 766:../Libraries/STM32F10x_StdPeriph_Driver/src/stm32f10x_fsmc.c **** }
 1711              		.loc 1 766 0
 1712 0a90 07F10C07 		add	r7, r7, #12
 1713 0a94 BD46     		mov	sp, r7
 1714 0a96 80BC     		pop	{r7}
 1715 0a98 7047     		bx	lr
 1716              		.cfi_endproc
 1717              	.LFE45:
 1719 0a9a 00BF     		.align	2
 1720              		.global	FSMC_GetITStatus
 1721              		.thumb
 1722              		.thumb_func
 1724              	FSMC_GetITStatus:
 1725              	.LFB46:
 767:../Libraries/STM32F10x_StdPeriph_Driver/src/stm32f10x_fsmc.c **** 
 768:../Libraries/STM32F10x_StdPeriph_Driver/src/stm32f10x_fsmc.c **** /**
 769:../Libraries/STM32F10x_StdPeriph_Driver/src/stm32f10x_fsmc.c ****   * @brief  Checks whether the specified FSMC interrupt has occurred or not.
 770:../Libraries/STM32F10x_StdPeriph_Driver/src/stm32f10x_fsmc.c ****   * @param  FSMC_Bank: specifies the FSMC Bank to be used
 771:../Libraries/STM32F10x_StdPeriph_Driver/src/stm32f10x_fsmc.c ****   *   This parameter can be one of the following values:
 772:../Libraries/STM32F10x_StdPeriph_Driver/src/stm32f10x_fsmc.c ****   *     @arg FSMC_Bank2_NAND: FSMC Bank2 NAND 
 773:../Libraries/STM32F10x_StdPeriph_Driver/src/stm32f10x_fsmc.c ****   *     @arg FSMC_Bank3_NAND: FSMC Bank3 NAND
 774:../Libraries/STM32F10x_StdPeriph_Driver/src/stm32f10x_fsmc.c ****   *     @arg FSMC_Bank4_PCCARD: FSMC Bank4 PCCARD
 775:../Libraries/STM32F10x_StdPeriph_Driver/src/stm32f10x_fsmc.c ****   * @param  FSMC_IT: specifies the FSMC interrupt source to check.
 776:../Libraries/STM32F10x_StdPeriph_Driver/src/stm32f10x_fsmc.c ****   *   This parameter can be one of the following values:
 777:../Libraries/STM32F10x_StdPeriph_Driver/src/stm32f10x_fsmc.c ****   *     @arg FSMC_IT_RisingEdge: Rising edge detection interrupt. 
 778:../Libraries/STM32F10x_StdPeriph_Driver/src/stm32f10x_fsmc.c ****   *     @arg FSMC_IT_Level: Level edge detection interrupt.
 779:../Libraries/STM32F10x_StdPeriph_Driver/src/stm32f10x_fsmc.c ****   *     @arg FSMC_IT_FallingEdge: Falling edge detection interrupt. 
 780:../Libraries/STM32F10x_StdPeriph_Driver/src/stm32f10x_fsmc.c ****   * @retval The new state of FSMC_IT (SET or RESET).
 781:../Libraries/STM32F10x_StdPeriph_Driver/src/stm32f10x_fsmc.c ****   */
 782:../Libraries/STM32F10x_StdPeriph_Driver/src/stm32f10x_fsmc.c **** ITStatus FSMC_GetITStatus(uint32_t FSMC_Bank, uint32_t FSMC_IT)
 783:../Libraries/STM32F10x_StdPeriph_Driver/src/stm32f10x_fsmc.c **** {
 1726              		.loc 1 783 0
 1727              		.cfi_startproc
 1728              		@ args = 0, pretend = 0, frame = 24
 1729              		@ frame_needed = 1, uses_anonymous_args = 0
 1730              		@ link register save eliminated.
 1731 0a9c 80B4     		push	{r7}
 1732              	.LCFI50:
 1733              		.cfi_def_cfa_offset 4
 1734              		.cfi_offset 7, -4
 1735 0a9e 87B0     		sub	sp, sp, #28
 1736              	.LCFI51:
 1737              		.cfi_def_cfa_offset 32
 1738 0aa0 00AF     		add	r7, sp, #0
 1739              	.LCFI52:
 1740              		.cfi_def_cfa_register 7
 1741 0aa2 7860     		str	r0, [r7, #4]
 1742 0aa4 3960     		str	r1, [r7, #0]
 784:../Libraries/STM32F10x_StdPeriph_Driver/src/stm32f10x_fsmc.c ****   ITStatus bitstatus = RESET;
 1743              		.loc 1 784 0
 1744 0aa6 4FF00003 		mov	r3, #0
 1745 0aaa FB75     		strb	r3, [r7, #23]
 785:../Libraries/STM32F10x_StdPeriph_Driver/src/stm32f10x_fsmc.c ****   uint32_t tmpsr = 0x0, itstatus = 0x0, itenable = 0x0; 
 1746              		.loc 1 785 0
 1747 0aac 4FF00003 		mov	r3, #0
 1748 0ab0 3B61     		str	r3, [r7, #16]
 1749 0ab2 4FF00003 		mov	r3, #0
 1750 0ab6 FB60     		str	r3, [r7, #12]
 1751 0ab8 4FF00003 		mov	r3, #0
 1752 0abc BB60     		str	r3, [r7, #8]
 786:../Libraries/STM32F10x_StdPeriph_Driver/src/stm32f10x_fsmc.c ****   
 787:../Libraries/STM32F10x_StdPeriph_Driver/src/stm32f10x_fsmc.c ****   /* Check the parameters */
 788:../Libraries/STM32F10x_StdPeriph_Driver/src/stm32f10x_fsmc.c ****   assert_param(IS_FSMC_IT_BANK(FSMC_Bank));
 789:../Libraries/STM32F10x_StdPeriph_Driver/src/stm32f10x_fsmc.c ****   assert_param(IS_FSMC_GET_IT(FSMC_IT));
 790:../Libraries/STM32F10x_StdPeriph_Driver/src/stm32f10x_fsmc.c ****   
 791:../Libraries/STM32F10x_StdPeriph_Driver/src/stm32f10x_fsmc.c ****   if(FSMC_Bank == FSMC_Bank2_NAND)
 1753              		.loc 1 791 0
 1754 0abe 7B68     		ldr	r3, [r7, #4]
 1755 0ac0 102B     		cmp	r3, #16
 1756 0ac2 06D1     		bne	.L56
 792:../Libraries/STM32F10x_StdPeriph_Driver/src/stm32f10x_fsmc.c ****   {
 793:../Libraries/STM32F10x_StdPeriph_Driver/src/stm32f10x_fsmc.c ****     tmpsr = FSMC_Bank2->SR2;
 1757              		.loc 1 793 0
 1758 0ac4 4FF06003 		mov	r3, #96
 1759 0ac8 CAF20003 		movt	r3, 40960
 1760 0acc 5B68     		ldr	r3, [r3, #4]
 1761 0ace 3B61     		str	r3, [r7, #16]
 1762 0ad0 10E0     		b	.L57
 1763              	.L56:
 794:../Libraries/STM32F10x_StdPeriph_Driver/src/stm32f10x_fsmc.c ****   }  
 795:../Libraries/STM32F10x_StdPeriph_Driver/src/stm32f10x_fsmc.c ****   else if(FSMC_Bank == FSMC_Bank3_NAND)
 1764              		.loc 1 795 0
 1765 0ad2 7B68     		ldr	r3, [r7, #4]
 1766 0ad4 B3F5807F 		cmp	r3, #256
 1767 0ad8 06D1     		bne	.L58
 796:../Libraries/STM32F10x_StdPeriph_Driver/src/stm32f10x_fsmc.c ****   {
 797:../Libraries/STM32F10x_StdPeriph_Driver/src/stm32f10x_fsmc.c ****     tmpsr = FSMC_Bank3->SR3;
 1768              		.loc 1 797 0
 1769 0ada 4FF08003 		mov	r3, #128
 1770 0ade CAF20003 		movt	r3, 40960
 1771 0ae2 5B68     		ldr	r3, [r3, #4]
 1772 0ae4 3B61     		str	r3, [r7, #16]
 1773 0ae6 05E0     		b	.L57
 1774              	.L58:
 798:../Libraries/STM32F10x_StdPeriph_Driver/src/stm32f10x_fsmc.c ****   }
 799:../Libraries/STM32F10x_StdPeriph_Driver/src/stm32f10x_fsmc.c ****   /* FSMC_Bank4_PCCARD*/
 800:../Libraries/STM32F10x_StdPeriph_Driver/src/stm32f10x_fsmc.c ****   else
 801:../Libraries/STM32F10x_StdPeriph_Driver/src/stm32f10x_fsmc.c ****   {
 802:../Libraries/STM32F10x_StdPeriph_Driver/src/stm32f10x_fsmc.c ****     tmpsr = FSMC_Bank4->SR4;
 1775              		.loc 1 802 0
 1776 0ae8 4FF0A003 		mov	r3, #160
 1777 0aec CAF20003 		movt	r3, 40960
 1778 0af0 5B68     		ldr	r3, [r3, #4]
 1779 0af2 3B61     		str	r3, [r7, #16]
 1780              	.L57:
 803:../Libraries/STM32F10x_StdPeriph_Driver/src/stm32f10x_fsmc.c ****   } 
 804:../Libraries/STM32F10x_StdPeriph_Driver/src/stm32f10x_fsmc.c ****   
 805:../Libraries/STM32F10x_StdPeriph_Driver/src/stm32f10x_fsmc.c ****   itstatus = tmpsr & FSMC_IT;
 1781              		.loc 1 805 0
 1782 0af4 3A69     		ldr	r2, [r7, #16]
 1783 0af6 3B68     		ldr	r3, [r7, #0]
 1784 0af8 1340     		ands	r3, r3, r2
 1785 0afa FB60     		str	r3, [r7, #12]
 806:../Libraries/STM32F10x_StdPeriph_Driver/src/stm32f10x_fsmc.c ****   
 807:../Libraries/STM32F10x_StdPeriph_Driver/src/stm32f10x_fsmc.c ****   itenable = tmpsr & (FSMC_IT >> 3);
 1786              		.loc 1 807 0
 1787 0afc 3B68     		ldr	r3, [r7, #0]
 1788 0afe 4FEAD302 		lsr	r2, r3, #3
 1789 0b02 3B69     		ldr	r3, [r7, #16]
 1790 0b04 1340     		ands	r3, r3, r2
 1791 0b06 BB60     		str	r3, [r7, #8]
 808:../Libraries/STM32F10x_StdPeriph_Driver/src/stm32f10x_fsmc.c ****   if ((itstatus != (uint32_t)RESET)  && (itenable != (uint32_t)RESET))
 1792              		.loc 1 808 0
 1793 0b08 FB68     		ldr	r3, [r7, #12]
 1794 0b0a 002B     		cmp	r3, #0
 1795 0b0c 06D0     		beq	.L59
 1796              		.loc 1 808 0 is_stmt 0 discriminator 1
 1797 0b0e BB68     		ldr	r3, [r7, #8]
 1798 0b10 002B     		cmp	r3, #0
 1799 0b12 03D0     		beq	.L59
 809:../Libraries/STM32F10x_StdPeriph_Driver/src/stm32f10x_fsmc.c ****   {
 810:../Libraries/STM32F10x_StdPeriph_Driver/src/stm32f10x_fsmc.c ****     bitstatus = SET;
 1800              		.loc 1 810 0 is_stmt 1
 1801 0b14 4FF00103 		mov	r3, #1
 1802 0b18 FB75     		strb	r3, [r7, #23]
 1803 0b1a 02E0     		b	.L60
 1804              	.L59:
 811:../Libraries/STM32F10x_StdPeriph_Driver/src/stm32f10x_fsmc.c ****   }
 812:../Libraries/STM32F10x_StdPeriph_Driver/src/stm32f10x_fsmc.c ****   else
 813:../Libraries/STM32F10x_StdPeriph_Driver/src/stm32f10x_fsmc.c ****   {
 814:../Libraries/STM32F10x_StdPeriph_Driver/src/stm32f10x_fsmc.c ****     bitstatus = RESET;
 1805              		.loc 1 814 0
 1806 0b1c 4FF00003 		mov	r3, #0
 1807 0b20 FB75     		strb	r3, [r7, #23]
 1808              	.L60:
 815:../Libraries/STM32F10x_StdPeriph_Driver/src/stm32f10x_fsmc.c ****   }
 816:../Libraries/STM32F10x_StdPeriph_Driver/src/stm32f10x_fsmc.c ****   return bitstatus; 
 1809              		.loc 1 816 0
 1810 0b22 FB7D     		ldrb	r3, [r7, #23]	@ zero_extendqisi2
 817:../Libraries/STM32F10x_StdPeriph_Driver/src/stm32f10x_fsmc.c **** }
 1811              		.loc 1 817 0
 1812 0b24 1846     		mov	r0, r3
 1813 0b26 07F11C07 		add	r7, r7, #28
 1814 0b2a BD46     		mov	sp, r7
 1815 0b2c 80BC     		pop	{r7}
 1816 0b2e 7047     		bx	lr
 1817              		.cfi_endproc
 1818              	.LFE46:
 1820              		.align	2
 1821              		.global	FSMC_ClearITPendingBit
 1822              		.thumb
 1823              		.thumb_func
 1825              	FSMC_ClearITPendingBit:
 1826              	.LFB47:
 818:../Libraries/STM32F10x_StdPeriph_Driver/src/stm32f10x_fsmc.c **** 
 819:../Libraries/STM32F10x_StdPeriph_Driver/src/stm32f10x_fsmc.c **** /**
 820:../Libraries/STM32F10x_StdPeriph_Driver/src/stm32f10x_fsmc.c ****   * @brief  Clears the FSMC's interrupt pending bits.
 821:../Libraries/STM32F10x_StdPeriph_Driver/src/stm32f10x_fsmc.c ****   * @param  FSMC_Bank: specifies the FSMC Bank to be used
 822:../Libraries/STM32F10x_StdPeriph_Driver/src/stm32f10x_fsmc.c ****   *   This parameter can be one of the following values:
 823:../Libraries/STM32F10x_StdPeriph_Driver/src/stm32f10x_fsmc.c ****   *     @arg FSMC_Bank2_NAND: FSMC Bank2 NAND 
 824:../Libraries/STM32F10x_StdPeriph_Driver/src/stm32f10x_fsmc.c ****   *     @arg FSMC_Bank3_NAND: FSMC Bank3 NAND
 825:../Libraries/STM32F10x_StdPeriph_Driver/src/stm32f10x_fsmc.c ****   *     @arg FSMC_Bank4_PCCARD: FSMC Bank4 PCCARD
 826:../Libraries/STM32F10x_StdPeriph_Driver/src/stm32f10x_fsmc.c ****   * @param  FSMC_IT: specifies the interrupt pending bit to clear.
 827:../Libraries/STM32F10x_StdPeriph_Driver/src/stm32f10x_fsmc.c ****   *   This parameter can be any combination of the following values:
 828:../Libraries/STM32F10x_StdPeriph_Driver/src/stm32f10x_fsmc.c ****   *     @arg FSMC_IT_RisingEdge: Rising edge detection interrupt. 
 829:../Libraries/STM32F10x_StdPeriph_Driver/src/stm32f10x_fsmc.c ****   *     @arg FSMC_IT_Level: Level edge detection interrupt.
 830:../Libraries/STM32F10x_StdPeriph_Driver/src/stm32f10x_fsmc.c ****   *     @arg FSMC_IT_FallingEdge: Falling edge detection interrupt.
 831:../Libraries/STM32F10x_StdPeriph_Driver/src/stm32f10x_fsmc.c ****   * @retval None
 832:../Libraries/STM32F10x_StdPeriph_Driver/src/stm32f10x_fsmc.c ****   */
 833:../Libraries/STM32F10x_StdPeriph_Driver/src/stm32f10x_fsmc.c **** void FSMC_ClearITPendingBit(uint32_t FSMC_Bank, uint32_t FSMC_IT)
 834:../Libraries/STM32F10x_StdPeriph_Driver/src/stm32f10x_fsmc.c **** {
 1827              		.loc 1 834 0
 1828              		.cfi_startproc
 1829              		@ args = 0, pretend = 0, frame = 8
 1830              		@ frame_needed = 1, uses_anonymous_args = 0
 1831              		@ link register save eliminated.
 1832 0b30 80B4     		push	{r7}
 1833              	.LCFI53:
 1834              		.cfi_def_cfa_offset 4
 1835              		.cfi_offset 7, -4
 1836 0b32 83B0     		sub	sp, sp, #12
 1837              	.LCFI54:
 1838              		.cfi_def_cfa_offset 16
 1839 0b34 00AF     		add	r7, sp, #0
 1840              	.LCFI55:
 1841              		.cfi_def_cfa_register 7
 1842 0b36 7860     		str	r0, [r7, #4]
 1843 0b38 3960     		str	r1, [r7, #0]
 835:../Libraries/STM32F10x_StdPeriph_Driver/src/stm32f10x_fsmc.c ****   /* Check the parameters */
 836:../Libraries/STM32F10x_StdPeriph_Driver/src/stm32f10x_fsmc.c ****   assert_param(IS_FSMC_IT_BANK(FSMC_Bank));
 837:../Libraries/STM32F10x_StdPeriph_Driver/src/stm32f10x_fsmc.c ****   assert_param(IS_FSMC_IT(FSMC_IT));
 838:../Libraries/STM32F10x_StdPeriph_Driver/src/stm32f10x_fsmc.c ****     
 839:../Libraries/STM32F10x_StdPeriph_Driver/src/stm32f10x_fsmc.c ****   if(FSMC_Bank == FSMC_Bank2_NAND)
 1844              		.loc 1 839 0
 1845 0b3a 7B68     		ldr	r3, [r7, #4]
 1846 0b3c 102B     		cmp	r3, #16
 1847 0b3e 10D1     		bne	.L62
 840:../Libraries/STM32F10x_StdPeriph_Driver/src/stm32f10x_fsmc.c ****   {
 841:../Libraries/STM32F10x_StdPeriph_Driver/src/stm32f10x_fsmc.c ****     FSMC_Bank2->SR2 &= ~(FSMC_IT >> 3); 
 1848              		.loc 1 841 0
 1849 0b40 4FF06003 		mov	r3, #96
 1850 0b44 CAF20003 		movt	r3, 40960
 1851 0b48 4FF06002 		mov	r2, #96
 1852 0b4c CAF20002 		movt	r2, 40960
 1853 0b50 5168     		ldr	r1, [r2, #4]
 1854 0b52 3A68     		ldr	r2, [r7, #0]
 1855 0b54 4FEAD202 		lsr	r2, r2, #3
 1856 0b58 6FEA0202 		mvn	r2, r2
 1857 0b5c 0A40     		ands	r2, r2, r1
 1858 0b5e 5A60     		str	r2, [r3, #4]
 1859 0b60 24E0     		b	.L61
 1860              	.L62:
 842:../Libraries/STM32F10x_StdPeriph_Driver/src/stm32f10x_fsmc.c ****   }  
 843:../Libraries/STM32F10x_StdPeriph_Driver/src/stm32f10x_fsmc.c ****   else if(FSMC_Bank == FSMC_Bank3_NAND)
 1861              		.loc 1 843 0
 1862 0b62 7B68     		ldr	r3, [r7, #4]
 1863 0b64 B3F5807F 		cmp	r3, #256
 1864 0b68 10D1     		bne	.L64
 844:../Libraries/STM32F10x_StdPeriph_Driver/src/stm32f10x_fsmc.c ****   {
 845:../Libraries/STM32F10x_StdPeriph_Driver/src/stm32f10x_fsmc.c ****     FSMC_Bank3->SR3 &= ~(FSMC_IT >> 3);
 1865              		.loc 1 845 0
 1866 0b6a 4FF08003 		mov	r3, #128
 1867 0b6e CAF20003 		movt	r3, 40960
 1868 0b72 4FF08002 		mov	r2, #128
 1869 0b76 CAF20002 		movt	r2, 40960
 1870 0b7a 5168     		ldr	r1, [r2, #4]
 1871 0b7c 3A68     		ldr	r2, [r7, #0]
 1872 0b7e 4FEAD202 		lsr	r2, r2, #3
 1873 0b82 6FEA0202 		mvn	r2, r2
 1874 0b86 0A40     		ands	r2, r2, r1
 1875 0b88 5A60     		str	r2, [r3, #4]
 1876 0b8a 0FE0     		b	.L61
 1877              	.L64:
 846:../Libraries/STM32F10x_StdPeriph_Driver/src/stm32f10x_fsmc.c ****   }
 847:../Libraries/STM32F10x_StdPeriph_Driver/src/stm32f10x_fsmc.c ****   /* FSMC_Bank4_PCCARD*/
 848:../Libraries/STM32F10x_StdPeriph_Driver/src/stm32f10x_fsmc.c ****   else
 849:../Libraries/STM32F10x_StdPeriph_Driver/src/stm32f10x_fsmc.c ****   {
 850:../Libraries/STM32F10x_StdPeriph_Driver/src/stm32f10x_fsmc.c ****     FSMC_Bank4->SR4 &= ~(FSMC_IT >> 3);
 1878              		.loc 1 850 0
 1879 0b8c 4FF0A003 		mov	r3, #160
 1880 0b90 CAF20003 		movt	r3, 40960
 1881 0b94 4FF0A002 		mov	r2, #160
 1882 0b98 CAF20002 		movt	r2, 40960
 1883 0b9c 5168     		ldr	r1, [r2, #4]
 1884 0b9e 3A68     		ldr	r2, [r7, #0]
 1885 0ba0 4FEAD202 		lsr	r2, r2, #3
 1886 0ba4 6FEA0202 		mvn	r2, r2
 1887 0ba8 0A40     		ands	r2, r2, r1
 1888 0baa 5A60     		str	r2, [r3, #4]
 1889              	.L61:
 851:../Libraries/STM32F10x_StdPeriph_Driver/src/stm32f10x_fsmc.c ****   }
 852:../Libraries/STM32F10x_StdPeriph_Driver/src/stm32f10x_fsmc.c **** }
 1890              		.loc 1 852 0
 1891 0bac 07F10C07 		add	r7, r7, #12
 1892 0bb0 BD46     		mov	sp, r7
 1893 0bb2 80BC     		pop	{r7}
 1894 0bb4 7047     		bx	lr
 1895              		.cfi_endproc
 1896              	.LFE47:
 1898              	.Letext0:
 1899              		.file 2 "c:\\program files (x86)\\codesourcery\\sourcery_codebench_lite_for_arm_eabi\\bin\\../lib/
 1900              		.file 3 "D:\\CORTEX\\F1_GlowingPainting\\Libraries\\CMSIS\\CM3\\DeviceSupport\\ST\\STM32F10x/stm32
 1901              		.file 4 "D:\\CORTEX\\F1_GlowingPainting\\Libraries\\STM32F10x_StdPeriph_Driver\\inc/stm32f10x_fsmc
 1902              		.file 5 "D:\\CORTEX\\F1_GlowingPainting\\Libraries\\CMSIS\\CM3\\CoreSupport/core_cm3.h"